 bellona2

 Timestamp is 63667548 (Sat Nov  5 23:38:00 2022)

 Preferred load address is 00400000

 Start         Length     Name                   Class
 0001:00000000 00009760H .text                   CODE
 0001:00009760 0002145aH .text$mn                CODE
 0002:00000000 00000060H .rdata                  DATA
 0002:00000060 0000060cH .edata                  DATA
 0002:0000066c 00000020H .rdata$voltmd           DATA
 0002:0000068c 00000138H .rdata$zzzdbg           DATA
 0003:00000000 00008540H .data                   DATA
 0003:00008540 00010800H .bss                    DATA
 0004:00000000 00000c30H data2                   DATA
 0005:00000000 00000060H .rsrc$01                DATA
 0005:00000060 00000180H .rsrc$02                DATA

  Address         Publics by Value              Rva+Base       Lib:Object

 0000:00000000       ___AbsoluteZero            00000000     <absolute>
 0000:00000000       ___arm64x_extra_rfe_table  00000000     <absolute>
 0000:00000000       ___arm64x_extra_rfe_table_size 00000000     <absolute>
 0000:00000000       ___arm64x_native_entrypoint 00000000     <absolute>
 0000:00000000       ___arm64x_redirection_metadata 00000000     <absolute>
 0000:00000000       ___arm64x_redirection_metadata_count 00000000     <absolute>
 0000:00000000       ___dynamic_value_reloc_table 00000000     <absolute>
 0000:00000000       ___enclave_config          00000000     <absolute>
 0000:00000000       ___guard_check_icall_a64n_fptr 00000000     <absolute>
 0000:00000000       ___guard_eh_cont_count     00000000     <absolute>
 0000:00000000       ___guard_eh_cont_table     00000000     <absolute>
 0000:00000000       ___guard_fids_count        00000000     <absolute>
 0000:00000000       ___guard_fids_table        00000000     <absolute>
 0000:00000000       ___guard_iat_count         00000000     <absolute>
 0000:00000000       ___guard_iat_table         00000000     <absolute>
 0000:00000000       ___guard_longjmp_count     00000000     <absolute>
 0000:00000000       ___guard_longjmp_table     00000000     <absolute>
 0000:00000000       ___hybrid_auxiliary_iat    00000000     <absolute>
 0000:00000000       ___hybrid_auxiliary_iat_copy 00000000     <absolute>
 0000:00000000       ___hybrid_code_map         00000000     <absolute>
 0000:00000000       ___hybrid_code_map_count   00000000     <absolute>
 0000:00000000       ___x64_code_ranges_to_entry_points 00000000     <absolute>
 0000:00000000       ___x64_code_ranges_to_entry_points_count 00000000     <absolute>
 0000:00000100       ___guard_flags             00000100     <absolute>
 0001:00000000       _get_filesystem_type       00400400 f   bell_fs:vfs.obj
 0001:0000005b       _display_vnodes            0040045b f   bell_fs:vfs.obj
 0001:0000025a       _find_first_vfs            0040065a f   bell_fs:vfs.obj
 0001:0000027a       _find_last_vfs             0040067a f   bell_fs:vfs.obj
 0001:0000029a       _get_root_vnode            0040069a f   bell_fs:vfs.obj
 0001:000002bf       _set_filesystem_root       004006bf f   bell_fs:vfs.obj
 0001:000002ee       _link_filesystem           004006ee f   bell_fs:vfs.obj
 0001:0000035e       _unlink_filesystem         0040075e f   bell_fs:vfs.obj
 0001:000003e9       _unregister_filesystem     004007e9 f   bell_fs:vfs.obj
 0001:000004c9       _register_filesystem       004008c9 f   bell_fs:vfs.obj
 0001:00000544       _link_filesystem_device    00400944 f   bell_fs:vfs.obj
 0001:00000554       _unlink_filesystem_device  00400954 f   bell_fs:vfs.obj
 0001:00000565       _vfs_ioctl                 00400965 f   bell_fs:vfs.obj
 0001:00000592       _vfs_mount                 00400992 f   bell_fs:vfs.obj
 0001:00000651       _vfs_unmount               00400a51 f   bell_fs:vfs.obj
 0001:000006e4       _make_vnode_manager        00400ae4 f   bell_fs:vfs.obj
 0001:0000077c       _delete_vnode_manager      00400b7c f   bell_fs:vfs.obj
 0001:000007ee       _new_vnode                 00400bee f   bell_fs:vfs.obj
 0001:00000981       _inc_vnode_ref_count       00400d81 f   bell_fs:vfs.obj
 0001:000009a8       _dec_vnode_ref_count       00400da8 f   bell_fs:vfs.obj
 0001:000009cf       _delete_vnode              00400dcf f   bell_fs:vfs.obj
 0001:00000a22       _register_vnode_hash       00400e22 f   bell_fs:vfs.obj
 0001:00000b6e       _unregister_vnode_hash     00400f6e f   bell_fs:vfs.obj
 0001:00000c9b       _find_vnode                0040109b f   bell_fs:vfs.obj
 0001:00000d13       _init_vfs                  00401113 f   bell_fs:vfs.obj
 0001:00000f9e       _close_vfs                 0040139e f   bell_fs:vfs.obj
 0001:00001131       _get_vnode_fullpath        00401531 f   bell_fs:vfs.obj
 0001:00001210       _chk_media_type            00401610 f   bell_fs:vfs.obj
 0001:00001290       _disp_jhelp                00401690 f   bell_fs:jcommand.obj
 0001:00001d4f       _jshell_disp_prompt        0040214f f   bell_fs:jcommand.obj
 0001:00001d63       _jshell_command            00402163 f   bell_fs:jcommand.obj
 0001:00001f30       _find_first_blkdev_obj     00402330 f   bell_fs:blkdev.obj
 0001:00001f4e       _open_block_device         0040234e f   bell_fs:blkdev.obj
 0001:0000202c       _find_dev_obj              0040242c f   bell_fs:blkdev.obj
 0001:00002074       _close_block_device        00402474 f   bell_fs:blkdev.obj
 0001:00002125       _register_blkdev           00402525 f   bell_fs:blkdev.obj
 0001:000021a5       _unregister_blkdev         004025a5 f   bell_fs:blkdev.obj
 0001:00002200       _write_block               00402600 f   bell_fs:blkdev.obj
 0001:00002254       _read_block                00402654 f   bell_fs:blkdev.obj
 0001:000022af       _discard_block_device      004026af f   bell_fs:blkdev.obj
 0001:0000230a       _reset_block_device        0040270a f   bell_fs:blkdev.obj
 0001:00002370       _get_fs_stt                00402770 f   bell_fs:file.obj
 0001:0000237a       _display_sys_fd            0040277a f   bell_fs:file.obj
 0001:00002482       _init_filesystem           00402882 f   bell_fs:file.obj
 0001:0000252a       _close_filesystem          0040292a f   bell_fs:file.obj
 0001:00002706       _free_sys_fd               00402b06 f   bell_fs:file.obj
 0001:000027e9       _kcreate                   00402be9 f   bell_fs:file.obj
 0001:00002ccb       _kwrite                    004030cb f   bell_fs:file.obj
 0001:00002dc8       _kread                     004031c8 f   bell_fs:file.obj
 0001:00002e5b       _klseek                    0040325b f   bell_fs:file.obj
 0001:00002f55       _kopen                     00403355 f   bell_fs:file.obj
 0001:000030a0       _kget_file_info            004034a0 f   bell_fs:file.obj
 0001:00003198       _kclose                    00403598 f   bell_fs:file.obj
 0001:000031fb       _kmkdir                    004035fb f   bell_fs:file.obj
 0001:0000323e       _kopendir                  0040363e f   bell_fs:file.obj
 0001:00003295       _kclosedir                 00403695 f   bell_fs:file.obj
 0001:000032b5       _kreaddir                  004036b5 f   bell_fs:file.obj
 0001:00003347       _kremove                   00403747 f   bell_fs:file.obj
 0001:000033e9       _handle_to_vnode           004037e9 f   bell_fs:file.obj
 0001:0000340f       _get_handle_fullpath       0040380f f   bell_fs:file.obj
 0001:00003458       _krename                   00403858 f   bell_fs:file.obj
 0001:0000364e       _file_test                 00403a4e f   bell_fs:file.obj
 0001:00003750       _fat32_cluster_to_block    00403b50 f   bell_fs:fat32.obj
 0001:000037a0       _free_fat_fs_struct        00403ba0 f   bell_fs:fat32.obj
 0001:000037e7       _alloc_fat_fs_struct       00403be7 f   bell_fs:fat32.obj
 0001:00007660       _fat32_find_dirent         00407a60 f   bell_fs:fat32.obj
 0001:00007700       _init_fat16_driver         00407b00 f   bell_fs:f16part.obj
 0001:0000791b       _close_fat16_driver        00407d1b f   bell_fs:f16part.obj
 0001:00007940       _init_fdd_fat12_driver     00407d40 f   bell_fs:fddfat12.obj
 0001:00007c2e       _close_fdd_fat12_driver    0040802e f   bell_fs:fddfat12.obj
 0001:00007c50       _init_fdd35_driver         00408050 f   bell_fs:fdd35.obj
 0001:00008191       _close_fdd35_driver        00408591 f   bell_fs:fdd35.obj
 0001:000081b0       _init_ide_hdd_driver       004085b0 f   bell_fs:idehdd.obj
 0001:000084ff       _close_ide_hdd_driver      004088ff f   bell_fs:idehdd.obj
 0001:00008530       _init_ram_disk_driver      00408930 f   bell_fs:ramdisk.obj
 0001:00008765       _close_ram_disk_driver     00408b65 f   bell_fs:ramdisk.obj
 0001:00008780       _atoul                     00408b80 f   bell_fs:digit.obj
 0001:00008860       _make_blk_cache            00408c60 f   bell_fs:bcache.obj
 0001:00008926       _flush_blk_cache           00408d26 f   bell_fs:bcache.obj
 0001:00008a6d       _close_blk_cache           00408e6d f   bell_fs:bcache.obj
 0001:00008b33       _find_hash_ent             00408f33 f   bell_fs:bcache.obj
 0001:00008b9f       _read_blk_cache            00408f9f f   bell_fs:bcache.obj
 0001:00008cad       _get_blk_cache_buff        004090ad f   bell_fs:bcache.obj
 0001:00008da2       _write_blk_cache           004091a2 f   bell_fs:bcache.obj
 0001:00008eba       _alloc_bcache_ent          004092ba f   bell_fs:bcache.obj
 0001:00009204       _bcache_scatter_load       00409604 f   bell_fs:bcache.obj
 0001:00009440       _std_in_read               00409840 f   bell_fs:stdinout.obj
 0001:00009483       _std_out_write             00409883 f   bell_fs:stdinout.obj
 0001:0000951d       _std_err_write             0040991d f   bell_fs:stdinout.obj
 0001:00009550       _init_hdd_part_driver      00409950 f   bell_fs:hddpart.obj
 0001:00009744       _close_hdd_part_driver     00409b44 f   bell_fs:hddpart.obj
 0001:00009760       _get_3c905b_mac_address    00409b60 f   3c905b.obj
 0001:000097e0       _find_3c905b_nic           00409be0 f   3c905b.obj
 0001:00009860       _init_3c905b               00409c60 f   3c905b.obj
 0001:00009950       _dump_upds                 00409d50 f   3c905b.obj
 0001:00009ea0       _kdbg_set_trace_repeat     0040a2a0 f   bellona2.obj
 0001:00009eb0       _bellona2_main             0040a2b0 f   bellona2.obj
 0001:0000a8c0       _nWriteToVideoMem_Len      0040acc0 f   bellona2.obj
 0001:0000a950       _nWriteToVideoMem          0040ad50 f   bellona2.obj
 0001:0000a9e0       _read_cd_capacity          0040ade0 f   cdrom.obj
 0001:0000ac40       _read_cd_geometry_info     0040b040 f   cdrom.obj
 0001:0000ae70       _init_char_dev             0040b270 f   chardev.obj
 0001:0000aec0       _register_chardev          0040b2c0 f   chardev.obj
 0001:0000af40       _unregister_chardev        0040b340 f   chardev.obj
 0001:0000afb0       _read_char_device          0040b3b0 f   chardev.obj
 0001:0000aff0       _close_char_device         0040b3f0 f   chardev.obj
 0001:0000b090       _write_char_device         0040b490 f   chardev.obj
 0001:0000b0e0       _find_first_chardev_obj    0040b4e0 f   chardev.obj
 0001:0000b100       _open_char_device          0040b500 f   chardev.obj
 0001:0000b1c0       _wSearchTwoByteTbl         0040b5c0 f   Codetbl.obj
 0001:0000b260       _pRegStr                   0040b660 f   Codetbl.obj
 0001:0000b6a0       _enter_cs                  0040baa0 f   cs.obj
 0001:0000b710       _leave_cs                  0040bb10 f   cs.obj
 0001:0000b730       _move_cursor               0040bb30 f   cursor.obj
 0001:0000b7e0       _set_cursor_xy             0040bbe0 f   cursor.obj
 0001:0000b800       _get_cursor_xy             0040bc00 f   cursor.obj
 0001:0000b870       _vInitDebugRegister        0040bc70 f   dbgreg.obj
 0001:0000b8a0       _vDispDebugRegister        0040bca0 f   dbgreg.obj
 0001:0000bb70       _nSetBreakpoint            0040bf70 f   dbgreg.obj
 0001:0000bcd0       _nResetBreakpoint          0040c0d0 f   dbgreg.obj
 0001:0000bdc0       _set_iopl                  0040c1c0 f   dbgreg.obj
 0001:0000bf10       _kpause                    0040c310 f   event.obj
 0001:0000bf30       _close_event               0040c330 f   event.obj
 0001:0000bfd0       _inc_event_count           0040c3d0 f   event.obj
 0001:0000c0c0       _kill_timer_callback       0040c4c0 f   event.obj
 0001:0000c0f0       _clear_event_count         0040c4f0 f   event.obj
 0001:0000c110       _wait_event                0040c510 f   event.obj
 0001:0000c280       _init_event                0040c680 f   event.obj
 0001:0000c2b0       _set_timer_callback        0040c6b0 f   event.obj
 0001:0000c310       _create_event              0040c710 f   event.obj
 0001:0000c350       _kdelay                    0040c750 f   event.obj
 0001:0000c370       _init_system_event         0040c770 f   event.obj
 0001:0000c3e0       _release_thread_wait_object 0040c7e0 f   event.obj
 0001:0000c430       _set_wait_obj_free         0040c830 f   event.obj
 0001:0000c470       _is_no_active_wait_obj     0040c870 f   event.obj
 0001:0000c4b0       _register_event            0040c8b0 f   event.obj
 0001:0000c560       _unlink_waitobj_from_event 0040c960 f   event.obj
 0001:0000c5e0       _awake_the_first_waiting_thread 0040c9e0 f   event.obj
 0001:0000c680       _get_thread_empty_wait_obj 0040ca80 f   event.obj
 0001:0000c760       _find_thread_wait_obj      0040cb60 f   event.obj
 0001:0000c960       _find_function_address     0040cd60 f   export.obj
 0001:0000c9e0       _disp_export_table         0040cde0 f   export.obj
 0001:0000ca80       _realize_exp_table         0040ce80 f   export.obj
 0001:0000cb10       _fdd_reset                 0040cf10 f   fdd.obj
 0001:0000cb60       _fdd_handler               0040cf60 f   fdd.obj
 0001:0000cbe0       _fdd_motor_off             0040cfe0 f   fdd.obj
 0001:0000cc00       _fdd_read_test             0040d000 f   fdd.obj
 0001:0000ccf0       _fdd_write_test            0040d0f0 f   fdd.obj
 0001:0000cd30       _fdd_set_ready             0040d130 f   fdd.obj
 0001:0000cd80       _fdd_read_track            0040d180 f   fdd.obj
 0001:0000cdb0       _fdd_write_track           0040d1b0 f   fdd.obj
 0001:0000d2b0       _fdd_motor_off_callback    0040d6b0 f   fdd.obj
 0001:0000d3e0       __ffmt                     0040d7e0 f   ffmt.obj
 0001:0000d790       _launch_r3_program         0040db90 f   fork.obj
 0001:0000d8e0       _call_r3_function          0040dce0 f   fork.obj
 0001:0000d920       _call_r3_thread            0040dd20 f   fork.obj
 0001:0000d9a0       _simulate_call             0040dda0 f   fork.obj
 0001:0000da30       _vClearGDTR                0040de30 f   Gdt.obj
 0001:0000da50       _wSetGDTRSize              0040de50 f   Gdt.obj
 0001:0000da80       _dwSetGDTRAddr             0040de80 f   Gdt.obj
 0001:0000dab0       _wGetGDTRSize              0040deb0 f   Gdt.obj
 0001:0000dac0       _dwGetGDTRAddr             0040dec0 f   Gdt.obj
 0001:0000dad0       _vClearDescriptor          0040ded0 f   Gdt.obj
 0001:0000daf0       _vCopyDescriptor           0040def0 f   Gdt.obj
 0001:0000db10       _dwSetDescriptorSize       0040df10 f   Gdt.obj
 0001:0000dba0       _dwSetDescriptorAddr       0040dfa0 f   Gdt.obj
 0001:0000dc20       _bySetDescriptorAccess     0040e020 f   Gdt.obj
 0001:0000dc50       _bySetDescriptorGDOU       0040e050 f   Gdt.obj
 0001:0000dca0       _dwGetDescriptorSize       0040e0a0 f   Gdt.obj
 0001:0000dd20       _dwGetDescriptorAddr       0040e120 f   Gdt.obj
 0001:0000dd90       _byGetDescriptorAccess     0040e190 f   Gdt.obj
 0001:0000dda0       _byGetDescriptorGDOU       0040e1a0 f   Gdt.obj
 0001:0000ddd0       _dwSetCallGeteOffset       0040e1d0 f   Gdt.obj
 0001:0000de50       _dwGetCallGate32Offset     0040e250 f   Gdt.obj
 0001:0000de60       _vMakeGDTDescriptor        0040e260 f   Gdt.obj
 0001:0000ded0       _vMakeTaskGate_in_GDT      0040e2d0 f   Gdt.obj
 0001:0000df10       _vMakeTaskGate_in_IDT      0040e310 f   Gdt.obj
 0001:0000df50       _vDispGDT                  0040e350 f   Gdt.obj
 0001:0000e040       _vSetDescriptorBusyBit     0040e440 f   Gdt.obj
 0001:0000e170       _pGetDescriptorTypeStr     0040e570 f   Gdt.obj
 0001:0000e440       _ide_auto_detection        0040e840 f   hdd.obj
 0001:0000e620       _dump_hdd                  0040ea20 f   hdd.obj
 0001:0000e690       _primary_hdd_irq14         0040ea90 f   hdd.obj
 0001:0000e6d0       _secondary_hdd_irq15       0040ead0 f   hdd.obj
 0001:0000e710       _vCutAppendedSpace         0040eb10 f   hdd.obj
 0001:0000e760       _vSwapUINT16Array          0040eb60 f   hdd.obj
 0001:0000e7e0       _get_ide_geo_ptr           0040ebe0 f   hdd.obj
 0001:0000ee00       _read_sectors              0040f200 f   hdd.obj
 0001:0000efd0       _scatter_read_sectors      0040f3d0 f   hdd.obj
 0001:0000f050       _init_thread               0040f450 f   init.obj
 0001:0000f1d0       _sniper_thread             0040f5d0 f   init.obj
 0001:0000f230       _set_global_kill_param     0040f630 f   init.obj
 0001:0000f260       _init_task_main            0040f660 f   init.obj
 0001:0000f2a0       _jmp_init_task             0040f6a0 f   init.obj
 0001:0000f310       _set_init_phase            0040f710 f   init.obj
 0001:0000f320       _get_init_phase            0040f720 f   init.obj
 0001:0000f330       _get_init_thread           0040f730 f   init.obj
 0001:0000f730       _get_clk                   0040fb30 f   int.obj
 0001:0000f750       _display_idt               0040fb50 f   int.obj
 0001:0000f8d0       _pagefault_task_main       0040fcd0 f   int.obj
 0001:0000f940       _vDefaultExceptionHandler  0040fd40 f   int.obj
 0001:0000f960       _vSetDefaultIDT            0040fd60 f   int.obj
 0001:0000fa60       _set_int_handler           0040fe60 f   int.obj
 0001:0000fa90       _get_rdtsc_per_millis      0040fe90 f   int.obj
 0001:0000faa0       _dwGetIDTOffset            0040fea0 f   int.obj
 0001:0000fae0       _dwSetIDTOffset            0040fee0 f   int.obj
 0001:0000fb60       _invalid_op_handler        0040ff60 f   int.obj
 0001:0000fb80       _no_seg_handler            0040ff80 f   int.obj
 0001:0000fba0       _stack_fault               0040ffa0 f   int.obj
 0001:0000fdf0       _fpu_exception             004101f0 f   int.obj
 0001:0000fe10       _invalid_tss               00410210 f   int.obj
 0001:000100a0       _getchar                   004104a0 f   kbd.obj
 0001:00010110       _vInitKBDLed               00410510 f   kbd.obj
 0001:00010140       _kbd_handler               00410540 f   kbd.obj
 0001:00010190       _thread_kbhit              00410590 f   kbd.obj
 0001:000101e0       _gets                      004105e0 f   kbd.obj
 0001:00010340       _vSetKBDLed                00410740 f   kbd.obj
 0001:000103a0       _vDispKbdState             004107a0 f   kbd.obj
 0001:00010410       _alloc_thread_kbd_q        00410810 f   kbd.obj
 0001:00010460       _free_thread_kbd_q         00410860 f   kbd.obj
 0001:00010490       _sub_key_from_thread       00410890 f   kbd.obj
 0001:00010520       _add_key_to_thread         00410920 f   kbd.obj
 0001:000105b0       _deliver_key               004109b0 f   kbd.obj
 0001:00010b60       _init_logical_kbd_driver   00410f60 f   kbddrv.obj
 0001:00010cf0       _kdbg_printf               004110f0 f   kdebug.obj
 0001:00010d50       _kdbg_printf_ex            00411150 f   kdebug.obj
 0001:00010db0       _kdbg_clearscreen          004111b0 f   kdebug.obj
 0001:00010ef0       _kdbg_disp_next_code       004112f0 f   kdebug.obj
 0001:00011020       _kdbg_breakpoint           00411420 f   kdebug.obj
 0001:00011030       _pGetBackLinkTSS           00411430 f   kdebug.obj
 0001:00011080       _kdbg_set_debugee_rf       00411480 f   kdebug.obj
 0001:000110f0       _kdbg_set_debugee_tf       004114f0 f   kdebug.obj
 0001:00011140       _disp_src_and_regs         00411540 f   kdebug.obj
 0001:00011270       _disp_call_stack           00411670 f   kdebug.obj
 0001:00011570       _kdbg_set_debugee_tid      00411970 f   kdebug.obj
 0001:000115b0       _debugger_getchar          004119b0 f   kdebug.obj
 0001:00011620       _swap_cc_by_org_code       00411a20 f   kdebug.obj
 0001:000116f0       _is_debugger_active        00411af0 f   kdebug.obj
 0001:00011700       _get_vertical_line_size    00411b00 f   kdebug.obj
 0001:00011710       _kassemble                 00411b10 f   kdebug.obj
 0001:000117b0       _recover_cc                00411bb0 f   kdebug.obj
 0001:00011810       _overwrite_cc              00411c10 f   kdebug.obj
 0001:000118c0       _kedit_memory              00411cc0 f   kdebug.obj
 0001:00011970       _kdbg_key_input            00411d70 f   kdebug.obj
 0001:000119e0       _set_vertical_line_size    00411de0 f   kdebug.obj
 0001:00011a00       _set_debugger_active       00411e00 f   kdebug.obj
 0001:00011a20       _kxy_printf                00411e20 f   kdebug.obj
 0001:00011a80       _unassembling              00411e80 f   kdebug.obj
 0001:00011e10       _disp_hw_breaks            00412210 f   kdebug.obj
 0001:00011ed0       _kdbg_clear_dr             004122d0 f   kdebug.obj
 0001:00011f90       _kdbg_set_dr               00412390 f   kdebug.obj
 0001:00012050       _wGetBackLink              00412450 f   kdebug.obj
 0001:00012070       _dwTTYOut                  00412470 f   kdebug.obj
 0001:00012250       _kdbg_change_CR3           00412650 f   kdebug.obj
 0001:00012300       _kdbg_get_debugee_tid      00412700 f   kdebug.obj
 0001:00012640       _ksend_kmesg               00412a40 f   kmesg.obj
 0001:000127b0       _kwait_kmesg               00412bb0 f   kmesg.obj
 0001:00012ab0       _kill_thread               00412eb0 f   kprocess.obj
 0001:00012b30       _ksuspend_thread           00412f30 f   kprocess.obj
 0001:00012ba0       _kresume_thread            00412fa0 f   kprocess.obj
 0001:00012be0       _k_set_thread_alias        00412fe0 f   kprocess.obj
 0001:00012c30       _k_set_process_alias       00413030 f   kprocess.obj
 0001:00012c80       _find_thread_by_alias      00413080 f   kprocess.obj
 0001:00012cd0       _kcreate_thread            004130d0 f   kprocess.obj
 0001:00012ee0       _k_get_current_process     004132e0 f   kprocess.obj
 0001:00012f00       _find_thread_by_id         00413300 f   kprocess.obj
 0001:00012f40       _change_thread_state       00413340 f   kprocess.obj
 0001:00012ff0       _detach_addr_space         004133f0 f   kprocess.obj
 0001:000130a0       _disp_process              004134a0 f   kprocess.obj
 0001:00013230       _disp_thread               00413630 f   kprocess.obj
 0001:00013390       _is_process                00413790 f   kprocess.obj
 0001:000133d0       _is_thread                 004137d0 f   kprocess.obj
 0001:00013410       _kclose_thread             00413810 f   kprocess.obj
 0001:00013530       _kernel_fork               00413930 f   kprocess.obj
 0001:000136a0       _kexecve                   00413aa0 f   kprocess.obj
 0001:000137a0       _kfork                     00413ba0 f   kprocess.obj
 0001:000137c0       _kill_process              00413bc0 f   kprocess.obj
 0001:00013840       _krelease_process_struct   00413c40 f   kprocess.obj
 0001:00013910       _krelease_thread_struct    00413d10 f   kprocess.obj
 0001:00013990       _kwait                     00413d90 f   kprocess.obj
 0001:00013a10       _kwaitpid                  00413e10 f   kprocess.obj
 0001:00013a80       _kwaittid                  00413e80 f   kprocess.obj
 0001:00013b40       _nPopThread                00413f40 f   kprocess.obj
 0001:00013bd0       _nPushThread               00413fd0 f   kprocess.obj
 0001:00013c50       _set_foreground_thread     00414050 f   kprocess.obj
 0001:00013c90       _set_global_foreground_thread 00414090 f   kprocess.obj
 0001:00013ce0       _skip_space                004140e0 f   kprocess.obj
 0001:00013d20       _search_space              00414120 f   kprocess.obj
 0001:00013d60       _disp_thread_list          00414160 f   kprocess.obj
 0001:00013ea0       _disp_process_list         004142a0 f   kprocess.obj
 0001:00013ff0       _display_schedule_q        004143f0 f   kprocess.obj
 0001:000140b0       _get_thread_page_dir       004144b0 f   kprocess.obj
 0001:000140c0       _get_process_page_dir      004144c0 f   kprocess.obj
 0001:000140d0       _r0_fork_thread            004144d0 f   kprocess.obj
 0001:00014130       _get_current_thread        00414530 f   kprocess.obj
 0001:00014140       _find_thread_by_tss        00414540 f   kprocess.obj
 0001:00014180       _get_fg_thread             00414580 f   kprocess.obj
 0001:000141a0       _kcreate_process           004145a0 f   kprocess.obj
 0001:00014290       _get_sys_fg_process        00414690 f   kprocess.obj
 0001:000142c0       _get_fg_process            004146c0 f   kprocess.obj
 0001:00014300       _find_process_by_id        00414700 f   kprocess.obj
 0001:00014370       _make_kexecve_param        00414770 f   kprocess.obj
 0001:00014b30       _kthread_entry_point       00414f30 f   kprocess.obj
 0001:00015460       _kdbg_shell                00415860 f   kshell.obj
 0001:00015d00       _nIsCallThenImplantCC      00416100 f   kshlcmd.obj
 0001:00015de0       _kshell_function           004161e0 f   kshlcmd.obj
 0001:00015ec0       _kdbg_change_register_value 004162c0 f   kshlcmd.obj
 0001:000162f0       _disp_version              004166f0 f   kshlcmd.obj
 0001:00016310       _dump_memory               00416710 f   kshlcmd.obj
 0001:00016500       _read_cmos_time            00416900 f   kshlcmd.obj
 0001:00017e00       _kf_KC_EXP                 00418200 f   kshlcmd.obj
 0001:000183e0       _send_signal_to_thread     004187e0 f   ksignal.obj
 0001:00018490       _copy_thread_sig_bits      00418890 f   ksignal.obj
 0001:000185e0       _disp_signal_str           004189e0 f   ksignal.obj
 0001:00018630       _get_signal_bit            00418a30 f   ksignal.obj
 0001:00018690       _set_grxcall_tbl           00418a90 f   ksyscall.obj
 0001:000186b0       _system_call_wrapper       00418ab0 f   ksyscall.obj
 0001:000186e0       _ksyscall_handler          00418ae0 f   ksyscall.obj
 0001:00018760       _kgrxcall_handler          00418b60 f   ksyscall.obj
 0001:00019350       _ksc_get_r3exp_tbl         00419750 f   ksyscall.obj
 0001:00019500       _load_pe_file              00419900 f   Ldr.obj
 0001:00019d80       _wSetDefaultBit            0041a180 f   Lucifer.obj
 0001:00019db0       _pDispOp                   0041a1b0 f   Lucifer.obj
 0001:0001a350       _wLucifer                  0041a750 f   Lucifer.obj
 0001:0001b410       _nDisAssembleOneCode       0041b810 f   Lucifer.obj
 0001:0001b460       _pDosDispOp                0041b860 f   Lucifer.obj
 0001:0001b930       _pByte2Hex                 0041bd30 f   Lucifer.obj
 0001:0001b9d0       _pMakeOperandStr           0041bdd0 f   Lucifer.obj
 0001:0001bd90       _wMRR16                    0041c190 f   Lucifer.obj
 0001:0001bdf0       _wMRR32                    0041c1f0 f   Lucifer.obj
 0001:0001bed0       _wDecodeModRegRm           0041c2d0 f   Lucifer.obj
 0001:0001bf70       _wOperandSize              0041c370 f   Lucifer.obj
 0001:0001c0e0       _wGetReg                   0041c4e0 f   Lucifer.obj
 0001:0001c140       _wSetBaseIndexScale32      0041c540 f   Lucifer.obj
 0001:0001c1d0       _wSetBaseIndex16           0041c5d0 f   Lucifer.obj
 0001:0001c2c0       _wSetOperand               0041c6c0 f   Lucifer.obj
 0001:0001cc60       _kfree                     0041d060 f   Malloc.obj
 0001:0001cc80       _ufree                     0041d080 f   Malloc.obj
 0001:0001ccd0       _kmalloc                   0041d0d0 f   Malloc.obj
 0001:0001cd30       _umalloc                   0041d130 f   Malloc.obj
 0001:0001cda0       _validate_mem_pool         0041d1a0 f   Malloc.obj
 0001:0001cf80       _init_memory_pool          0041d380 f   Malloc.obj
 0001:0001d970       _disp_shmem                0041dd70 f   memory.obj
 0001:0001da30       _init_shared_mem           0041de30 f   memory.obj
 0001:0001da60       _close_shmem               0041de60 f   memory.obj
 0001:0001db20       _attach_shmem              0041df20 f   memory.obj
 0001:0001dc40       _detach_shmem              0041e040 f   memory.obj
 0001:0001dcf0       _find_shmem_ent            0041e0f0 f   memory.obj
 0001:0001ddc0       _create_shmem              0041e1c0 f   memory.obj
 0001:0001df70       _lock_shmem                0041e370 f   memory.obj
 0001:0001dfc0       _unlock_shmem              0041e3c0 f   memory.obj
 0001:0001e010       _nGetPhysMemSize           0041e410 f   memory.obj
 0001:0001e0c0       _get_available_phys_size   0041e4c0 f   memory.obj
 0001:0001e280       _disp_module               0041e680 f   module.obj
 0001:0001e320       _init_sys_module_struct    0041e720 f   module.obj
 0001:0001e3c0       _get_sys_module            0041e7c0 f   module.obj
 0001:0001e3d0       _unload_module             0041e7d0 f   module.obj
 0001:0001e430       _inc_process_count         0041e830 f   module.obj
 0001:0001e460       _dec_process_count         0041e860 f   module.obj
 0001:0001e4a0       _load_bellona2_dbginfo     0041e8a0 f   module.obj
 0001:0001e500       _load_module               0041e900 f   module.obj
 0001:0001e520       _find_module_by_addr       0041e920 f   module.obj
 0001:0001e5c0       _load_user_module          0041e9c0 f   module.obj
 0001:0001e670       _load_pe                   0041ea70 f   module.obj
 0001:0001e7f0       _find_module_by_alias      0041ebf0 f   module.obj
 0001:0001e870       _import_linking            0041ec70 f   module.obj
 0001:0001eb50       _set_mouse_callback        0041ef50 f   mouse.obj
 0001:0001eb60       _init_kbd_and_ps2_mouse    0041ef60 f   mouse.obj
 0001:0001ebf0       _ps2_mouse_handler         0041eff0 f   mouse.obj
 0001:0001ee00       _nMyAsm                    0041f200 f   Myasm.obj
 0001:0001f040       _nInitOpCodeTbl            0041f440 f   Myasm.obj
 0001:0001f160       _nSearchTbl                0041f560 f   Myasm.obj
 0001:0001f200       _nSetExtGrp                0041f600 f   Myasm.obj
 0001:00023760       _is_coff_dbg2              00423b60 f   mydbg2.obj
 0001:000237a0       _get_coff_dbg2             00423ba0 f   mydbg2.obj
 0001:00023880       _load_mydbg2_info          00423c80 f   mydbg2.obj
 0001:000239a0       _get_func_ent_by_name      00423da0 f   mydbg2.obj
 0001:00023aa0       _get_func_ent_by_addr      00423ea0 f   mydbg2.obj
 0001:00023b70       _find_coff_dbg_info        00423f70 f   mydbg2.obj
 0001:00023bc0       _get_nearest_func_ent_by_addr 00423fc0 f   mydbg2.obj
 0001:00023ca0       _get_file_func_lineno      004240a0 f   mydbg2.obj
 0001:00023ee0       _init_nic                  004242e0 f   nic.obj
 0001:00023fc0       _copy_on_write             004243c0 f   paging.obj
 0001:00024150       __nMappingUserVAddr        00424550 f   paging.obj
 0001:00024180       __nMappingVAddr            00424580 f   paging.obj
 0001:000241b0       _change_mapping_to_user    004245b0 f   paging.obj
 0001:000242a0       _disp_map                  004246a0 f   paging.obj
 0001:00024420       _forced_mapping            00424820 f   paging.obj
 0001:000244d0       _nFreePage                 004248d0 f   paging.obj
 0001:00024520       _nFreePageTable            00424920 f   paging.obj
 0001:00024540       _nMapping                  00424940 f   paging.obj
 0001:00024570       _nMappingUser              00424970 f   paging.obj
 0001:000245a0       _nReleaseMapping           004249a0 f   paging.obj
 0001:00024610       _release_user_area         00424a10 f   paging.obj
 0001:00024630       _release_rw_user_area      00424a30 f   paging.obj
 0001:00024650       _update_kernel_mapping_flag 00424a50 f   paging.obj
 0001:00024670       _check_memory_validity     00424a70 f   paging.obj
 0001:00024700       _dup_page_dir              00424b00 f   paging.obj
 0001:00024840       _disp_page_dir             00424c40 f   paging.obj
 0001:00024a10       _set_cur_cr3_in_tss        00424e10 f   paging.obj
 0001:00024a30       _set_cr3_in_tss            00424e30 f   paging.obj
 0001:00024a50       _vEnablePaging             00424e50 f   paging.obj
 0001:00024a70       _vInitKernelPage           00424e70 f   paging.obj
 0001:00024bf0       _pAllocPageTable           00424ff0 f   paging.obj
 0001:00024ce0       _dwAllocPhysPage           004250e0 f   paging.obj
 0001:00024d50       _find_free_linear_space    00425150 f   paging.obj
 0001:00024df0       _get_kernel_mapping_flag   004251f0 f   paging.obj
 0001:00024e00       _get_physical_address      00425200 f   paging.obj
 0001:00024e90       _dwReleaseMappingVAddr     00425290 f   paging.obj
 0001:000251b0       ___release_user_area       004255b0 f   paging.obj
 0001:000257c0       _scan_pci_devices          00425bc0 f   pci.obj
 0001:00025950       _find_pci_device           00425d50 f   pci.obj
 0001:000259c0       _display_pci_parameter     00425dc0 f   pci.obj
 0001:00025f50       _rshell_thread             00426350 f   rsh_serv.obj
 0001:00025fc0       _send_string_to_remote_shell 004263c0 f   rsh_serv.obj
 0001:00026070       _kernel_thread_switching   00426470 f   schedule.obj
 0001:000260e0       _init_gui_timer            004264e0 f   schedule.obj
 0001:00026100       _unregister_gui_timer      00426500 f   schedule.obj
 0001:000261b0       _close_all_gui_timer       004265b0 f   schedule.obj
 0001:00026200       _find_gui_timer            00426600 f   schedule.obj
 0001:00026250       _register_gui_timer        00426650 f   schedule.obj
 0001:00026340       _dwGetCurTick              00426740 f   schedule.obj
 0001:00026350       _alloc_timeout             00426750 f   schedule.obj
 0001:00026430       _kernel_scheduler          00426830 f   schedule.obj
 0001:00026470       _set_pick_thread_id        00426870 f   schedule.obj
 0001:000264a0       _ktimer_scheduler          004268a0 f   schedule.obj
 0001:000265f0       _free_timeout              004269f0 f   schedule.obj
 0001:00026630       _add_to_timeout_list       00426a30 f   schedule.obj
 0001:000266b0       _sub_from_timeout_list     00426ab0 f   schedule.obj
 0001:00026720       _kernel_task_switching     00426b20 f   schedule.obj
 0001:000267f0       _kinit_scheduler           00426bf0 f   schedule.obj
 0001:00026cc0       _init_system_semaphore     004270c0 f   semaph.obj
 0001:00026ce0       _ksem_create               004270e0 f   semaph.obj
 0001:00026df0       _ksem_open                 004271f0 f   semaph.obj
 0001:00026e30       _ksem_close                00427230 f   semaph.obj
 0001:00026ee0       _ksem_post                 004272e0 f   semaph.obj
 0001:00026f20       _ksem_wait                 00427320 f   semaph.obj
 0001:00026f60       _down_cond_value           00427360 f   semaph.obj
 0001:00026f90       _init_cond_value           00427390 f   semaph.obj
 0001:00027000       _serial_irq                00427400 f   serial.obj
 0001:00027040       _init_serial_port_driver   00427440 f   serial.obj
 0001:00027660       _nInitStk                  00427a60 f   Stk.obj
 0001:00027680       _nPushSEntOperator         00427a80 f   Stk.obj
 0001:00027790       _nPushSEnt                 00427b90 f   Stk.obj
 0001:000277d0       _nPopSEnt                  00427bd0 f   Stk.obj
 0001:00027810       _nCalcStk                  00427c10 f   Stk.obj
 0001:00027a80       _nDispTSS                  00427e80 f   tss.obj
 0001:00027cb0       _nAppendTSSTbl             004280b0 f   tss.obj
 0001:00027d40       _vMakeV86TSS               00428140 f   tss.obj
 0001:00027d80       _vMakeTSS                  00428180 f   tss.obj
 0001:00027db0       _make_tlb_tss              004281b0 f   tss.obj
 0001:00027e10       _get_current_tss           00428210 f   tss.obj
 0001:00027e50       _tlb_task_main             00428250 f   tss.obj
 0001:00028350       _init_tty_driver           00428750 f   tty.obj
 0001:00028410       _strlen                    00428810 f   util.obj
 0001:00028450       _strcpy                    00428850 f   util.obj
 0001:000284a0       _strcat                    004288a0 f   util.obj
 0001:00028500       _strcmp                    00428900 f   util.obj
 0001:00028570       _strcmpi                   00428970 f   util.obj
 0001:000285e0       _sprintf                   004289e0 f   util.obj
 0001:00028620       _memcpy                    00428a20 f   util.obj
 0001:00028670       _memset                    00428a70 f   util.obj
 0001:00028750       _memcmp                    00428b50 f   util.obj
 0001:000287c0       _is_char                   00428bc0 f   util.obj
 0001:00028800       _vsprintf                  00428c00 f   util.obj
 0001:00028830       _pGetPureFileName          00428c30 f   util.obj
 0001:00028890       _get_pure_filename         00428c90 f   util.obj
 0001:00028900       _segoffset_to_offset32     00428d00 f   util.obj
 0001:00028940       _i64_shr                   00428d40 f   util.obj
 0001:000289f0       _is_digit                  00428df0 f   util.obj
 0001:00028a30       _uppercase                 00428e30 f   util.obj
 0001:00028a90       _lowercase                 00428e90 f   util.obj
 0001:00028af0       _dwHexValue                00428ef0 f   util.obj
 0001:00028bf0       _dwDecValue                00428ff0 f   util.obj
 0001:00028c70       _lines_xx                  00429070 f   v86.obj
 0001:00028d40       _get_v86_buff              00429140 f   v86.obj
 0001:00028dc0       _v86_system_call           004291c0 f   v86.obj
 0001:00028de0       _int_10h_emulator          004291e0 f   v86.obj
 0001:00028f40       _int_1Ah_emulator          00429340 f   v86.obj
 0001:000290a0       _int_6Dh_emulator          004294a0 f   v86.obj
 0001:00029200       _call_to_v86_thread        00429600 f   v86.obj
 0001:00029250       _v86lib_thread             00429650 f   v86.obj
 0001:00029420       _load_v86_lib              00429820 f   v86.obj
 0001:00029510       _set_v86_param             00429910 f   v86.obj
 0001:00029590       _is_v86_lib                00429990 f   v86.obj
 0001:00029670       _set_gui_console_ftbl      00429a70 f   vconsole.obj
 0001:00029680       _set_fg_process            00429a80 f   vconsole.obj
 0001:00029720       _set_active_vconsole       00429b20 f   vconsole.obj
 0001:00029830       _get_active_vconsole       00429c30 f   vconsole.obj
 0001:00029840       _is_active_vconsole        00429c40 f   vconsole.obj
 0001:00029860       _change_next_vconsole      00429c60 f   vconsole.obj
 0001:00029960       _disp_vconsole             00429d60 f   vconsole.obj
 0001:00029a80       _init_sys_vconsole         00429e80 f   vconsole.obj
 0001:00029b00       _is_fg_process             00429f00 f   vconsole.obj
 0001:00029b40       _close_vconsole            00429f40 f   vconsole.obj
 0001:00029bd0       _set_current_vconsole      00429fd0 f   vconsole.obj
 0001:00029c00       _gui_flushing              0042a000 f   vconsole.obj
 0001:00029c40       _gui_direct_write          0042a040 f   vconsole.obj
 0001:00029c90       _gui_set_cursor_xy         0042a090 f   vconsole.obj
 0001:00029ce0       _gui_cls                   0042a0e0 f   vconsole.obj
 0001:00029d20       _gui_write                 0042a120 f   vconsole.obj
 0001:00029d60       _del_fg_link               0042a160 f   vconsole.obj
 0001:00029e20       _make_vconsole             0042a220 f   vconsole.obj
 0001:00029f30       _get_current_vconsole      0042a330 f   vconsole.obj
 0001:00029f60       _get_kernel_vconsole       0042a360 f   vconsole.obj
 0001:00029f70       _move_vconsole_cursor      0042a370 f   vconsole.obj
 0001:0002a010       _set_system_gui_info       0042a410 f   vesa.obj
 0001:0002a030       _set_vesa_mode             0042a430 f   vesa.obj
 0001:0002a130       _is_gui_mode               0042a530 f   vesa.obj
 0001:0002a140       _end_gui                   0042a540 f   vesa.obj
 0001:0002a1a0       _get_vesa_info             0042a5a0 f   vesa.obj
 0001:0002a210       _disp_vesa_info            0042a610 f   vesa.obj
 0001:0002a320       _start_gui                 0042a720 f   vesa.obj
 0001:0002a480       _vesa_mode_test            0042a880 f   vesa.obj
 0001:0002a5f0       _get_gui_exp               0042a9f0 f   vesa.obj
 0001:0002a990       _vAsmInitFPU               0042ad90 f   asm.obj
 0001:0002a997       _vResetGDT                 0042ad97 f   asm.obj
 0001:0002a9c2       _vSendEOI                  0042adc2 f   asm.obj
 0001:0002a9d5       _vReprogramPIC             0042add5 f   asm.obj
 0001:0002a9fa       _vReadPort                 0042adfa f   asm.obj
 0001:0002aa11       _vReadPortWord             0042ae11 f   asm.obj
 0001:0002aa25       _vReadPortMultiWord        0042ae25 f   asm.obj
 0001:0002aa44       _vReadPortDword            0042ae44 f   asm.obj
 0001:0002aa56       _vWritePort                0042ae56 f   asm.obj
 0001:0002aa66       _vWritePortWord            0042ae66 f   asm.obj
 0001:0002aa77       _vWritePortDword           0042ae77 f   asm.obj
 0001:0002aa87       WaitInBufferEmpty          0042ae87 f   asm.obj
 0001:0002aa97       WaitOutBufferFull          0042ae97 f   asm.obj
 0001:0002aaa7       _MaskIRQ                   0042aea7 f   asm.obj
 0001:0002aad6       _UnMaskIRQ                 0042aed6 f   asm.obj
 0001:0002ab09       _vAsmSetKBDLed             0042af09 f   asm.obj
 0001:0002ab4b       _vRebootSystem             0042af4b f   asm.obj
 0001:0002ab57       _vEnableInterrupt          0042af57 f   asm.obj
 0001:0002ab65       _vSetTimerInterval         0042af65 f   asm.obj
 0001:0002ab80       _dwReadCMOS                0042af80 f   bcmos.obj
 0001:0002ab9a       _dwWriteCMOS               0042af9a f   bcmos.obj
 0002:0000066c       ___volatile_metadata       0042b66c     <linker-defined>
 0003:00000350       _nTotalGDTEnt              0042bb50     bellona2.obj
 0003:00000470       _OneByteTbl                0042bc70     Codetbl.obj
 0003:00000f80       _TwoByteTbl                0042c780     Codetbl.obj
 0003:00001414       _swGrp01Tbl                0042cc14     Codetbl.obj
 0003:00001424       _swGrp02Tbl                0042cc24     Codetbl.obj
 0003:00001434       _swGrp03Tbl                0042cc34     Codetbl.obj
 0003:00001444       _swGrp04Tbl                0042cc44     Codetbl.obj
 0003:00001454       _swGrp05Tbl                0042cc54     Codetbl.obj
 0003:00001464       _swGrp06Tbl                0042cc64     Codetbl.obj
 0003:00001474       _swGrp07Tbl                0042cc74     Codetbl.obj
 0003:00001484       _swGrp08Tbl                0042cc84     Codetbl.obj
 0003:00001494       _SegRegTbl                 0042cc94     Codetbl.obj
 0003:000014a4       _swEscD8Tbl                0042cca4     Codetbl.obj
 0003:000014b4       _swEscD9Tbl1               0042ccb4     Codetbl.obj
 0003:000014c8       _swEscD9Tbl2               0042ccc8     Codetbl.obj
 0003:00001508       _swEscDaTbl                0042cd08     Codetbl.obj
 0003:00001518       _swEscDbTbl                0042cd18     Codetbl.obj
 0003:00001528       _swEscDcTbl                0042cd28     Codetbl.obj
 0003:00001538       _swEscDdTbl1               0042cd38     Codetbl.obj
 0003:00001548       _swEscDdTbl2               0042cd48     Codetbl.obj
 0003:00001558       _swEscDeTbl                0042cd58     Codetbl.obj
 0003:00001568       _swEscDfTbl                0042cd68     Codetbl.obj
 0003:00001578       _RegTbl8                   0042cd78     Codetbl.obj
 0003:00001588       _RegTbl16                  0042cd88     Codetbl.obj
 0003:00001598       _RegTbl32                  0042cd98     Codetbl.obj
 0003:000015a8       _spMnemonic                0042cda8     Codetbl.obj
 0003:00002ca8       _pm_pic_data               0042e4a8     int.obj
 0003:00002cc4       _real_pic_data             0042e4c4     int.obj
 0003:00002fa0       _KbdTable                  0042e7a0     kbd.obj
 0003:00005728       _wAsmDefault               00430f28     Myasm.obj
 0003:00006558       _rsvTbl                    00431d58     Symtbl.obj
 0003:00006fc0       ??_C@_05FDCJ@FAT12?$AA@    004327c0     bell_fs:vfs.obj
 0003:00006fc8       ??_C@_05PJHF@FAT16?$AA@    004327c8     bell_fs:vfs.obj
 0003:00006fd0       ??_C@_05HOHM@FAT32?$AA@    004327d0     bell_fs:vfs.obj
 0003:00006fd8       ??_C@_0BC@LEJ@?$FL?$CFd?$FN?5?$CFd?5?$CF?912s?5?$CFs?6?$AA@ 004327d8     bell_fs:vfs.obj
 0003:00006fec       ??_C@_0O@PIHL@mounted?5on?5?$CFs?$AA@ 004327ec     bell_fs:vfs.obj
 0003:00006ffc       ??_C@_01FDLN@?1?$AA@       004327fc     bell_fs:vfs.obj
 0003:00007000       ??_C@_0DC@NKOL@unlink_filesystem?$CI?$CJ?5?3?5pVNode?9?$DOpM@ 00432800     bell_fs:vfs.obj
 0003:00007034       ??_C@_0CF@LHDF@unlink_filesystem?$CI?$CJ?5?3?5pVNode?5?$DN?5N@ 00432834     bell_fs:vfs.obj
 0003:0000705c       ??_C@_0CK@KHFD@unregister_filesystem?$CI?$CJ?5?3?5VFS?5no@ 0043285c     bell_fs:vfs.obj
 0003:00007088       ??_C@_0CJ@FNCD@unregister_filesystem?$CI?$CJ?5?3?5No?5Fil@ 00432888     bell_fs:vfs.obj
 0003:000070b4       ??_C@_0CC@DGBN@vfs_mount?3?5pVFS?9?$DOop?4mount?$CI?$CJ?5?9?5?$CFd@ 004328b4     bell_fs:vfs.obj
 0003:000070d8       ??_C@_0CA@JCHG@vfs_mount?$CI?$CJ?5?3?5pVFS?9?$DOpMountNode?6?$AA@ 004328d8     bell_fs:vfs.obj
 0003:000070f8       ??_C@_0CF@OJNE@vfs_mount?$CI?$CJ?5?3?5pVFS?9?$DOop?4mount?5?$DN?5N@ 004328f8     bell_fs:vfs.obj
 0003:00007120       ??_C@_0CI@OPGB@vfs_unmount?$CI?$CJ?5?3?5pVFS?9?$DOpRootNode?5@ 00432920     bell_fs:vfs.obj
 0003:00007148       ??_C@_0BN@DKFH@vfs_unmount?$CI?$CJ?5?3?5pVFS?5?$DN?5NULL?6?$AA@ 00432948     bell_fs:vfs.obj
 0003:00007168       ??_C@_0CF@CMOA@dwGetHashKey?$CI?$CJ?5?9?5Empty?5hash?5stri@ 00432968     bell_fs:vfs.obj
 0003:00007190       ??_C@_0CN@HBCI@nunregister_vnode_hash?$CI?$CJ?5?3?5vnode@ 00432990     bell_fs:vfs.obj
 0003:000071c0       ??_C@_0CF@DGFN@unregister_vnode_hash?$CI?$CJ?5?3?5no?5ent@ 004329c0     bell_fs:vfs.obj
 0003:000071e8       ??_C@_0CO@EPJB@unmountable?5media?5type?5?3?5mountin@ 004329e8     bell_fs:vfs.obj
 0003:00007218       ??_C@_0L@MCLJ@?5?9?5error?$CB?6?$AA@ 00432a18     bell_fs:vfs.obj
 0003:00007224       ??_C@_06CCBH@?5?9?5ok?6?$AA@ 00432a24     bell_fs:vfs.obj
 0003:0000722c       ??_C@_0BB@DCON@mount?5hda1?5to?5?1c?$AA@ 00432a2c     bell_fs:vfs.obj
 0003:00007240       ??_C@_02JMK@?1c?$AA@       00432a40     bell_fs:vfs.obj
 0003:00007244       ??_C@_0BN@JJKG@IDE?5HDD?5Driver?5open?5failed?4?6?$AA@ 00432a44     bell_fs:vfs.obj
 0003:00007264       ??_C@_0BO@NFGA@3?45?$CC?5FDD?5driver?5open?5failed?4?6?$AA@ 00432a64     bell_fs:vfs.obj
 0003:00007284       ??_C@_04GHJM@?1dev?$AA@    00432a84     bell_fs:vfs.obj
 0003:0000728c       ??_C@_0BO@IMFA@Ram?5Disk?5Driver?5open?5failed?4?6?$AA@ 00432a8c     bell_fs:vfs.obj
 0003:000072ac       ??_C@_0DJ@IJLF@unmount_all?$CI?$CJ?5?9?5the?5vfs?5does?5not@ 00432aac     bell_fs:vfs.obj
 0003:000072e8       ??_C@_0CP@KJBJ@unmount_all?$CI?$CJ?5?9?5vfs?4op?4free?$CI?$CJ?5re@ 00432ae8     bell_fs:vfs.obj
 0003:00007318       ??_C@_0BN@IBLM@?$FL?$CF2d?$FN?5?5?$CF?912s?5?9?5not?5mounted?4?6?$AA@ 00432b18     bell_fs:vfs.obj
 0003:00007338       ??_C@_0BM@BDOJ@?$FL?$CF2d?$FN?5?5?$CF?912s?5?9?5unmount?5ok?4?6?$AA@ 00432b38     bell_fs:vfs.obj
 0003:00007354       ??_C@_0CA@KKP@?$FL?$CF2d?$FN?5?5?$CF?912s?5?9?5unmount?5failed?$CB?6?$AA@ 00432b54     bell_fs:vfs.obj
 0003:00007374       ??_C@_0BI@HIDM@no?5mounted?5filesystem?4?6?$AA@ 00432b74     bell_fs:vfs.obj
 0003:0000738c       ??_C@_05LELA@?$CFs?1?$CFs?$AA@ 00432b8c     bell_fs:vfs.obj
 0003:00007394       ??_C@_0CD@GNKD@unknown?5hdd?5partition?5type?5?$DN?50x?$CF@ 00432b94     bell_fs:vfs.obj
 0003:000074d8       ??_C@_0BA@BJOP@display?5vnodes?4?$AA@ 00432cd8     bell_fs:jcommand.obj
 0003:000074e8       ??_C@_06EBG@vnodes?$AA@    00432ce8     bell_fs:jcommand.obj
 0003:000074f0       ??_C@_0BE@LDLJ@unmount?5filesystem?4?$AA@ 00432cf0     bell_fs:jcommand.obj
 0003:00007504       ??_C@_07LBAN@unmount?$AA@  00432d04     bell_fs:jcommand.obj
 0003:0000750c       ??_C@_0BJ@EAPO@display?5file?8s?5contents?4?$AA@ 00432d0c     bell_fs:jcommand.obj
 0003:00007528       ??_C@_04PIKN@type?$AA@     00432d28     bell_fs:jcommand.obj
 0003:00007530       ??_C@_0CM@MIKG@?$DMmajor?$DO?5?$DMminor?$DO?5?$DMindex?$DO?$DL?5read?5bl@ 00432d30     bell_fs:jcommand.obj
 0003:0000755c       ??_C@_04PMLC@rdev?$AA@     00432d5c     bell_fs:jcommand.obj
 0003:00007564       ??_C@_0N@KGNA@rename?5file?4?$AA@ 00432d64     bell_fs:jcommand.obj
 0003:00007574       ??_C@_03CNCF@ren?$AA@      00432d74     bell_fs:jcommand.obj
 0003:00007578       ??_C@_0BC@FCOL@remove?5directory?4?$AA@ 00432d78     bell_fs:jcommand.obj
 0003:0000758c       ??_C@_05HDPO@rmdir?$AA@    00432d8c     bell_fs:jcommand.obj
 0003:00007594       ??_C@_09IJKO@not?5used?4?$AA@ 00432d94     bell_fs:jcommand.obj
 0003:000075a0       ??_C@_01PEMH@q?$AA@        00432da0     bell_fs:jcommand.obj
 0003:000075a4       ??_C@_0BD@IAAO@open?5blockd?5evice?4?$AA@ 00432da4     bell_fs:jcommand.obj
 0003:000075b8       ??_C@_0L@HJLI@openblkdev?$AA@ 00432db8     bell_fs:jcommand.obj
 0003:000075c4       ??_C@_0BC@DHC@mount?5filesystem?4?$AA@ 00432dc4     bell_fs:jcommand.obj
 0003:000075d8       ??_C@_05LHIE@mount?$AA@    00432dd8     bell_fs:jcommand.obj
 0003:000075e0       ??_C@_0BE@BHPN@make?5new?5directory?4?$AA@ 00432de0     bell_fs:jcommand.obj
 0003:000075f4       ??_C@_05MPJH@mkdir?$AA@    00432df4     bell_fs:jcommand.obj
 0003:000075fc       ??_C@_0BI@DGL@list?5directory?5entries?4?$AA@ 00432dfc     bell_fs:jcommand.obj
 0003:00007614       ??_C@_02DBOA@ls?$AA@       00432e14     bell_fs:jcommand.obj
 0003:00007618       ??_C@_0BC@PBAJ@list?5filesystems?4?$AA@ 00432e18     bell_fs:jcommand.obj
 0003:0000762c       ??_C@_0L@MDEH@filesystem?$AA@ 00432e2c     bell_fs:jcommand.obj
 0003:00007638       ??_C@_0BB@DFLI@list?5open?5files?4?$AA@ 00432e38     bell_fs:jcommand.obj
 0003:0000764c       ??_C@_05LBKK@files?$AA@    00432e4c     bell_fs:jcommand.obj
 0003:00007654       ??_C@_0L@CLKD@not?5used?4?4?$AA@ 00432e54     bell_fs:jcommand.obj
 0003:00007660       ??_C@_04BAHI@exit?$AA@     00432e60     bell_fs:jcommand.obj
 0003:00007668       ??_C@_0DD@NLHO@?$DMmajor_number?$DO?5?$DMminor_number?$DO?$DL?5c@ 00432e68     bell_fs:jcommand.obj
 0003:0000769c       ??_C@_0M@GIEA@closeblkdev?$AA@ 00432e9c     bell_fs:jcommand.obj
 0003:000076a8       ??_C@_0BL@JEIC@list?5block?5device?5drivers?4?$AA@ 00432ea8     bell_fs:jcommand.obj
 0003:000076c4       ??_C@_04KJJD@bdev?$AA@     00432ec4     bell_fs:jcommand.obj
 0003:000076cc       ??_C@_0BE@BENN@attach?5file?5system?4?$AA@ 00432ecc     bell_fs:jcommand.obj
 0003:000076e0       ??_C@_08HAMH@attachfs?$AA@ 00432ee0     bell_fs:jcommand.obj
 0003:000076ec       ??_C@_0M@MMGD@?$CF?910s?5?3?5?$CFs?6?$AA@ 00432eec     bell_fs:jcommand.obj
 0003:000076f8       ??_C@_01BJG@?6?$AA@        00432ef8     bell_fs:jcommand.obj
 0003:000076fc       ??_C@_02DILL@?$CFs?$AA@    00432efc     bell_fs:jcommand.obj
 0003:00007700       ??_C@_0BC@HLP@type?5?$DMfile_path?$DO?6?$AA@ 00432f00     bell_fs:jcommand.obj
 0003:00007714       ??_C@_0CD@DFIP@ls?5?9?5open_directory?$CI?5?$CFs?5?$CJ?5failed@ 00432f14     bell_fs:jcommand.obj
 0003:00007738       ??_C@_0CF@FJBP@?$FL?$CF3d?$FN?5?$CI?$CF08X?$CJ?$CF8d?5?1?5?$CF?98d?5?$CF5d?5?$CF?913s@ 00432f38     bell_fs:jcommand.obj
 0003:00007760       ??_C@_0BA@DLJH@mkdir?$CI?$CFs?$CJ?5?9?5?$CFd?6?$AA@ 00432f60     bell_fs:jcommand.obj
 0003:00007770       ??_C@_0BC@PALM@mkdir?5?$DMdir_path?$DO?6?$AA@ 00432f70     bell_fs:jcommand.obj
 0003:00007784       ??_C@_0BC@BLME@rmdir?5?$DMdir_path?$DO?6?$AA@ 00432f84     bell_fs:jcommand.obj
 0003:00007798       ??_C@_0CA@JHMN@?$CF?916s?5?$CF?94d?5?5?5?5?5?5?$CF?94d?5?5?5?5?5?5?$CF?94d?6?$AA@ 00432f98     bell_fs:jcommand.obj
 0003:000077b8       ??_C@_0DA@NMBL@name?5?5?5?5?5?5?5?5?5?5?5major?5?5?5?5?5minor?5?5@ 00432fb8     bell_fs:jcommand.obj
 0003:000077e8       ??_C@_0CF@FCLP@usage?5?3?5rdev?5?$DMmajor?$DO?5?$DMminor?$DO?5?$DMin@ 00432fe8     bell_fs:jcommand.obj
 0003:00007810       ??_C@_03HHKO@?$CFs?6?$AA@  00433010     bell_fs:jcommand.obj
 0003:00007814       ??_C@_01PJCK@?4?$AA@       00433014     bell_fs:jcommand.obj
 0003:00007818       ??_C@_02JBML@?$CFc?$AA@    00433018     bell_fs:jcommand.obj
 0003:0000781c       ??_C@_02IHLC@?5?5?$AA@     0043301c     bell_fs:jcommand.obj
 0003:00007820       ??_C@_05DLFD@?$CF02X?5?$AA@ 00433020     bell_fs:jcommand.obj
 0003:00007828       ??_C@_0BA@JMKG@VFS?5not?5found?4?6?$AA@ 00433028     bell_fs:jcommand.obj
 0003:00007838       ??_C@_0BF@MMMM@Invalid?5VFS?5ID?$CI?$CFd?$CJ?4?6?$AA@ 00433038     bell_fs:jcommand.obj
 0003:00007850       ??_C@_0BO@BDHC@mount?5?$DMvfs_id?$DO?5?$DMmount_point?$DO?6?$AA@ 00433050     bell_fs:jcommand.obj
 0003:00007870       ??_C@_0CN@KHJH@nJFUNC_unmount?$CI?$CJ?5?9?5vnode?5pointer@ 00433070     bell_fs:jcommand.obj
 0003:000078a0       ??_C@_0CJ@DIGB@nJFUNC_unmount?$CI?$CJ?5?9?5directory?5ope@ 004330a0     bell_fs:jcommand.obj
 0003:000078cc       ??_C@_0BH@PCBA@unmount?5?$DMmount_point?$DO?6?$AA@ 004330cc     bell_fs:jcommand.obj
 0003:000078e4       ??_C@_0BI@CFBN@?$FL?$CF2d?$FN?5?5?$CF?912s?5?5?$CF?916s?5?$CFs?6?$AA@ 004330e4     bell_fs:jcommand.obj
 0003:000078fc       ??_C@_07CNPM@UNKNOWN?$AA@  004330fc     bell_fs:jcommand.obj
 0003:00007904       ??_C@_0M@BJBE@not?5mounted?$AA@ 00433104     bell_fs:jcommand.obj
 0003:00007910       ??_C@_08GJGH@no?5vfs?4?6?$AA@ 00433110     bell_fs:jcommand.obj
 0003:0000791c       ??_C@_0DM@HBOF@nJFUNC_attachfs?$CI?$CJ?5?9?5alloc_fat_fs@ 0043311c     bell_fs:jcommand.obj
 0003:00007958       ??_C@_0DO@IJOB@nJFUNC_attachfs?$CI?$CJ?5?9?5block?5device@ 00433158     bell_fs:jcommand.obj
 0003:00007998       ??_C@_0BN@PFKI@unknown?5filesystem?5type?5?$CFs?$CB?6?$AA@ 00433198     bell_fs:jcommand.obj
 0003:000079b8       ??_C@_0EG@BID@attachfs?5?$DMblock_device_major?$DO?5?$DMb@ 004331b8     bell_fs:jcommand.obj
 0003:00007a00       ??_C@_0DE@EFKF@nJFUNC_openblkdev?$CI?$CJ?5?9?5opening?5bl@ 00433200     bell_fs:jcommand.obj
 0003:00007a34       ??_C@_0DB@IMCF@nJFUNC_openblkdev?$CI?$CJ?5?9?5memory?5all@ 00433234     bell_fs:jcommand.obj
 0003:00007a68       ??_C@_0CK@HKNA@openblkdev?5?$DMmajor_number?$DO?5?$DMminor@ 00433268     bell_fs:jcommand.obj
 0003:00007a94       ??_C@_0DF@EKCM@nJFUNC_closeblkdev?$CI?$CJ?5?9?5closing?5b@ 00433294     bell_fs:jcommand.obj
 0003:00007ad0       ??_C@_0EB@EHIK@nJFUNC_closeblkdev?$CI?$CJ?5?9?5block?5dev@ 004332d0     bell_fs:jcommand.obj
 0003:00007b14       ??_C@_0CL@IHLI@closeblkdev?5?$DMmajor_number?$DO?5?$DMmino@ 00433314     bell_fs:jcommand.obj
 0003:00007b40       ??_C@_0BL@PFPM@ren?5?$DMold_path?$DO?5?$DMnew_path?$DO?6?$AA@ 00433340     bell_fs:jcommand.obj
 0003:00007b5c       ??_C@_02GCPO@J?$DO?$AA@    0043335c     bell_fs:jcommand.obj
 0003:00007b64       ??_C@_0BE@NMLP@?$FL?$CFd?1?$CFd?$FN?5?5?$CF4d?5?5NULL?6?$AA@ 00433364     bell_fs:file.obj
 0003:00007b78       ??_C@_0BH@NEOC@?$FL?$CFd?1?$CFd?$FN?5?5?$CF4d?5?5?$CF08X?5?$CFs?6?$AA@ 00433378     bell_fs:file.obj
 0003:00007b90       ??_C@_0DK@HAAO@total?5?$CFd?5?1?5?$CFd?5system?5file?5descri@ 00433390     bell_fs:file.obj
 0003:00007bcc       ??_C@_0CD@GDJL@free_sys_fd?3?5pFD?4nRefCount?5?$DN?$DN?50?5@ 004333cc     bell_fs:file.obj
 0003:00007bf0       ??_C@_0CF@BKKL@free_sys_fd_?$CI?$CJ?5?3?5invalid?5fd?5hand@ 004333f0     bell_fs:file.obj
 0003:00007c18       ??_C@_0CJ@MNJC@tunnel_path?3?5close?5parent?5vnode?5@ 00433418     bell_fs:file.obj
 0003:00007c44       ??_C@_0CA@BDLH@tunnel_path?3?5resolving?5failed?$CB?6?$AA@ 00433444     bell_fs:file.obj
 0003:00007c64       ??_C@_0CG@PALJ@vnode_open?$CI?$CJ?5?9?5parent?5vnode?5is?5N@ 00433464     bell_fs:file.obj
 0003:00007c8c       ??_C@_0BK@HIIA@the?5file?5already?5exists?4?6?$AA@ 0043348c     bell_fs:file.obj
 0003:00007ca8       ??_C@_0BN@FPDH@vnode_close?3?5pVNode?5?$DN?5NULL?$CB?6?$AA@ 004334a8     bell_fs:file.obj
 0003:00007cc8       ??_C@_0DJ@OAJK@vnode_close?$DL?5the?5vnode?5does?5not?5@ 004334c8     bell_fs:file.obj
 0003:00007d04       ??_C@_0CA@KANA@vnode_close?3?5ref?5count?5is?5?$CFd?5?$CB?6?$AA@ 00433504     bell_fs:file.obj
 0003:00007d24       ??_C@_0CJ@MMGH@vnode_close?$DL?5the?5vnode?5pointer?5i@ 00433524     bell_fs:file.obj
 0003:00007d50       ??_C@_0CO@FOCM@vnode_get_info?3?5pParent?9?$DOop?4get_@ 00433550     bell_fs:file.obj
 0003:00007d80       ??_C@_0BI@CJHN@vnode_get_info?3?5error?$CB?6?$AA@ 00433580     bell_fs:file.obj
 0003:00007d98       ??_C@_0BK@DOCE@close_file?$CI?$CJ?5?9?5null?5fd?5?4?6?$AA@ 00433598     bell_fs:file.obj
 0003:00007db4       ??_C@_0BE@HNGO@kmkdir?$CI?$CFs?$CJ?5failed?$CB?6?$AA@ 004335b4     bell_fs:file.obj
 0003:00007dc8       ??_C@_0BK@MNJJ@kopendir?3?5kopen?$CI?$CFs?$CJ?5?9?5?$CFd?6?$AA@ 004335c8     bell_fs:file.obj
 0003:00007de4       ??_C@_0CN@KEJN@the?5new?5path?5does?5not?5exist?5in?5t@ 004335e4     bell_fs:file.obj
 0003:00007e14       ??_C@_0CD@FAGA@the?5new?5file?5name?5already?5exists@ 00433614     bell_fs:file.obj
 0003:00007e38       ??_C@_0BH@IMPF@invalid?5new?5name?5path?6?$AA@ 00433638     bell_fs:file.obj
 0003:00007e50       ??_C@_0BH@JODB@invalid?5old?5name?5path?6?$AA@ 00433650     bell_fs:file.obj
 0003:00007e68       ??_C@_0BP@KPAD@new?5name?5file?5already?5exists?4?6?$AA@ 00433668     bell_fs:file.obj
 0003:00007e88       ??_C@_0BI@PFJD@source?5file?5is?5in?5use?4?6?$AA@ 00433688     bell_fs:file.obj
 0003:00007ea0       ??_C@_0CE@FKNE@?$ANfiletest?5size?5?$DN?5?$CFd?0?5?$CI?$CFd?$CJth?5?3?5ok@ 004336a0     bell_fs:file.obj
 0003:00007ec4       ??_C@_0BA@FGOK@malloc?5failed?$CB?6?$AA@ 004336c4     bell_fs:file.obj
 0003:00007ed4       ??_C@_0N@KFPE@open?5error?$CB?6?$AA@ 004336d4     bell_fs:file.obj
 0003:000080e8       ??_C@_0BJ@GMLA@DBS?4wRootEntries?5?$CB?$DN?5224?6?$AA@ 004338e8     bell_fs:fat32.obj
 0003:00008104       ??_C@_0BC@CCJK@Read?5DBS?5failed?$CB?6?$AA@ 00433904     bell_fs:fat32.obj
 0003:00008118       ??_C@_0CD@LKFH@fat32_vnode_cluster_write?3?5error@ 00433918     bell_fs:fat32.obj
 0003:0000813c       ??_C@_0CK@HGPG@fat32_vnode_increase?$CI?$CJ?5?9?5critica@ 0043393c     bell_fs:fat32.obj
 0003:00008168       ??_C@_0CG@KBDK@new_fat32_vnode_cluster_read?3?5er@ 00433968     bell_fs:fat32.obj
 0003:00008190       ??_C@_0DD@KMEC@fat32_vnode_rename?$CI?$CJ?5?9?5deleting?5@ 00433990     bell_fs:fat32.obj
 0003:000081c4       ??_C@_0DC@IELD@fat32_vnode_rename?$CI?$CJ?5?9?5closing?5n@ 004339c4     bell_fs:fat32.obj
 0003:000081f8       ??_C@_0EB@EADK@fat32_vnode_rename?$CI?$CJ?5?9?5creating?5@ 004339f8     bell_fs:fat32.obj
 0003:0000823c       ??_C@_0DF@GGKA@fat32_vnode_rename?$CI?$CJ?5?9?5opening?5t@ 00433a3c     bell_fs:fat32.obj
 0003:00008274       ??_C@_0CA@JMII@fat32_read_dirent?$CI?$CJ?5?$DN?5_MDERROR?6?$AA@ 00433a74     bell_fs:fat32.obj
 0003:00008294       ??_C@_0CP@GLEE@fat32_vnode_create?$CI?$CJ?5?9?5?$FL?4?$FN?0?5?$FL?4?4?$FN@ 00433a94     bell_fs:fat32.obj
 0003:000082c4       ??_C@_0M@JNJI@?4?4?5?5?5?5?5?5?5?5?5?$AA@ 00433ac4     bell_fs:fat32.obj
 0003:000082d0       ??_C@_0M@MDAH@?4?5?5?5?5?5?5?5?5?5?5?$AA@ 00433ad0     bell_fs:fat32.obj
 0003:000082dc       ??_C@_03FOPJ@?$HO?$CFd?$AA@ 00433adc     bell_fs:fat32.obj
 0003:000082e0       ??_C@_0M@OIFJ@?5?5?5?5?5?5?5?5?5?5?5?$AA@ 00433ae0     bell_fs:fat32.obj
 0003:000082ec       ??_C@_0L@DGBA@FAT16?5PART?$AA@ 00433aec     bell_fs:f16part.obj
 0003:000082f8       ??_C@_09MMLH@FDD?5FAT12?$AA@ 00433af8     bell_fs:fddfat12.obj
 0003:00008304       ??_C@_05LKOJ@FDD35?$AA@    00433b04     bell_fs:fdd35.obj
 0003:0000830c       ??_C@_0CE@CCDH@Total?5?$CFd?5tracks?5were?5synchronize@ 00433b0c     bell_fs:fdd35.obj
 0003:00008330       ??_C@_07KIPD@IDE?5HDD?$AA@ 00433b30     bell_fs:idehdd.obj
 0003:00008338       ??_C@_0DE@KGND@ide_hdd_close?$CI?$CJ?5?9?5partition?5devi@ 00433b38     bell_fs:idehdd.obj
 0003:0000836c       ??_C@_08ODJI@RAM?5DISK?$AA@ 00433b6c     bell_fs:ramdisk.obj
 0003:00008378       ??_C@_0CB@OOOG@make_blk_cache?3?5pDevObj?5?$DN?5NULL?$CB?6@ 00433b78     bell_fs:bcache.obj
 0003:0000839c       ??_C@_0DI@MGOC@flush_blk_cache?3?5dirty?5entry?5wit@ 00433b9c     bell_fs:bcache.obj
 0003:000083d4       ??_C@_0CK@EBPG@get_removable_cache_ent?3?5op?4writ@ 00433bd4     bell_fs:bcache.obj
 0003:00008400       ??_C@_0BK@PBOM@pObj?9?$DOpDev?9?$DOop?4read?5?$DN?5?$CFd?6?$AA@ 00433c00     bell_fs:bcache.obj
 0003:0000841c       ??_C@_0CD@OKAE@alloc_bcache_ent?3?5nBlkSize?5I?$DN?551@ 00433c1c     bell_fs:bcache.obj
 0003:00008440       ??_C@_0CN@DKLC@insert_blk_cache?3?5no?5removable?5c@ 00433c40     bell_fs:bcache.obj
 0003:00008470       ??_C@_0CI@IAPM@get_removable_cache_ent?3?5invalid@ 00433c70     bell_fs:bcache.obj
 0003:00008498       ??_C@_0CF@OGIL@bcache_scatter_load?3?5MALLOC?5fail@ 00433c98     bell_fs:bcache.obj
 0003:000084c0       ??_C@_0O@GHBK@HDD?5PARTITION?$AA@ 00433cc0     bell_fs:hddpart.obj
 0003:000084d0       ??_C@_0CI@CDPL@hdd_part_scatter_read?3?5pBaseObj?5@ 00433cd0     bell_fs:hddpart.obj
 0003:000084f8       ??_C@_0DI@FPBI@hdd_part_scatter_read?3?5pDevObj?5o@ 00433cf8     bell_fs:hddpart.obj
 0003:00008598       _pMy                       00433d98     bellona2.obj
 0003:00015fe0       _pf_tss                    004417e0     <common>
 0003:00016060       _init_tss                  00441860     <common>
 0003:000160e0       _dbg_tss                   004418e0     <common>
 0003:00016160       _szMyAsmError              00441960     <common>
 0003:00016280       _opindex                   00441a80     <common>
 0003:00017b40       _lex                       00443340     <common>
 0003:00017e40       _nTotalLex                 00443640     <common>
 0003:00017e60       _kmp                       00443660     <common>
 0003:00017ec0       _sch                       004436c0     <common>
 0003:00017fa0       _int3_ent                  004437a0     <common>
 0003:00018040       _com4_event                00443840     <common>
 0003:00018080       _com3_event                00443880     <common>
 0003:000180c0       _com2_event                004438c0     <common>
 0003:00018100       _com1_event                00443900     <common>
 0003:00018140       _secondary_ide_event       00443940     <common>
 0003:00018180       _primary_ide_event         00443980     <common>
 0003:000181c0       _signal_event              004439c0     <common>
 0003:00018200       _delay_event               00443a00     <common>
 0003:00018240       _fdd_event                 00443a40     <common>
 0003:00018280       _kbd_event                 00443a80     <common>
 0003:000182c0       _bell                      00443ac0     <common>
 0003:00018300       _gdtr                      00443b00     <common>
 0003:00018308       _idtr                      00443b08     <common>
 0003:00018320       _idt                       00443b20     <common>
 0003:00018b20       _ldt                       00444320     <common>
 0003:00018b40       _gdt                       00444340     <common>

 entry point at        0001:00009eb0

 Static symbols

 0000:fffba400       .debug$S                   00400000     Bellona2.exp
 0001:000099b0       _int_handler_3c905b        00409db0 f   3c905b.obj
 0001:000099f0       _select_register_window_3c905b 00409df0 f   3c905b.obj
 0001:00009a40       _write_3c905b_register     00409e40 f   3c905b.obj
 0001:00009af0       _read_3c905b_register      00409ef0 f   3c905b.obj
 0001:00009ba0       _wait_command_processing   00409fa0 f   3c905b.obj
 0001:00009bf0       _read_eeprom_data          00409ff0 f   3c905b.obj
 0001:00009c70       _issue_3c905b_command      0040a070 f   3c905b.obj
 0001:00009cb0       _alloc_ucbs                0040a0b0 f   3c905b.obj
 0001:00009e30       _set_interrupt_enable_register 0040a230 f   3c905b.obj
 0001:00009e80       _get_3c905b_reg_info       0040a280 f   3c905b.obj
 0001:0000ac28       $LN18                      0040b028     cdrom.obj
 0001:0000ae10       _chk_cd_busy               0040b210 f   cdrom.obj
 0001:0000b560       $LN68                      0040b960     Codetbl.obj
 0001:0000bcc0       $LN10                      0040c0c0     dbgreg.obj
 0001:0000bda8       $LN10                      0040c1a8     dbgreg.obj
 0001:0000bdf0       _nOnOffDwordBit            0040c1f0 f   dbgreg.obj
 0001:0000beb0       _dwGetDwordBit             0040c2b0 f   dbgreg.obj
 0001:0000c7a0       _link_waitobj              0040cba0 f   event.obj
 0001:0000c850       _unlink_waitobj_from_thread 0040cc50 f   event.obj
 0001:0000c8c0       _destroy_waitobj           0040ccc0 f   event.obj
 0001:0000c930       _find_first_thread_in_event 0040cd30 f   event.obj
 0001:0000cba0       _fdd_motor_on              0040cfa0 f   fdd.obj
 0001:0000cdc0       _write_fdc_data_port       0040d1c0 f   fdd.obj
 0001:0000ce50       _read_fdc_data_port        0040d250 f   fdd.obj
 0001:0000cee0       _fdd_recalibrate           0040d2e0 f   fdd.obj
 0001:0000cf30       _init_dma_for_fdd          0040d330 f   fdd.obj
 0001:0000cfe0       _read_fdd_status           0040d3e0 f   fdd.obj
 0001:0000d0a0       _fdd_internal_track_io     0040d4a0 f   fdd.obj
 0001:0000d300       _fdd_track_io              0040d700 f   fdd.obj
 0001:0000d718       $LN41                      0040db18     ffmt.obj
 0001:0000d738       $LN40                      0040db38     ffmt.obj
 0001:0000d760       _nIsDigit                  0040db60 f   ffmt.obj
 0001:0000e0a0       _pGetGDOUStr               0040e4a0 f   Gdt.obj
 0001:0000e3f8       $LN30                      0040e7f8     Gdt.obj
 0001:0000e810       _scatter_read_sectors_by_lba 0040ec10 f   hdd.obj
 0001:0000e9c0       _read_sectors_by_lba       0040edc0 f   hdd.obj
 0001:0000eb50       _check_ide_hdd_busy        0040ef50 f   hdd.obj
 0001:0000ebb0       _read_hdd_geometry_info    0040efb0 f   hdd.obj
 0001:0000edc0       _vLBA2CHS                  0040f1c0 f   hdd.obj
 0001:0000ee80       _get_udma_support_number   0040f280 f   hdd.obj
 0001:0000ef20       _get_udma_set_number       0040f320 f   hdd.obj
 0001:0000f340       _release_process_stack_link 0040f740 f   init.obj
 0001:0000f3a0       _sniper_kill_process       0040f7a0 f   init.obj
 0001:0000f4a0       _sniper_kill_thread        0040f8a0 f   init.obj
 0001:0000f570       _get_global_kill_param     0040f970 f   init.obj
 0001:0000f5a0       _init_task_kill_thread     0040f9a0 f   init.obj
 0001:0000f600       _init_task_kill_process    0040fa00 f   init.obj
 0001:0000fb40       _double_fault_handler      0040ff40 f   int.obj
 0001:0000fbc0       _gp_fault_handler          0040ffc0 f   int.obj
 0001:0000fbe0       _page_fault                0040ffe0 f   int.obj
 0001:0000fca0       _detect_frequency          004100a0 f   int.obj
 0001:0000fd50       _timer_handler             00410150 f   int.obj
 0001:0000fe30       _irq3_handler              00410230 f   int.obj
 0001:0000fe70       _irq4_handler              00410270 f   int.obj
 0001:0000feb0       _irq5_handler              004102b0 f   int.obj
 0001:0000ff00       _irq7_handler              00410300 f   int.obj
 0001:0000ff50       _irq8_handler              00410350 f   int.obj
 0001:0000ffa0       _irq10_handler             004103a0 f   int.obj
 0001:0000fff0       _irq11_handler             004103f0 f   int.obj
 0001:00010050       _irq13_handler             00410450 f   int.obj
 0001:00010630       _special_key_combination   00410a30 f   kbd.obj
 0001:000106e0       _internal_kbd_handler      00410ae0 f   kbd.obj
 0001:00010bd0       _logical_kbd_open          00410fd0 f   kbddrv.obj
 0001:00010c40       _logical_kbd_close         00411040 f   kbddrv.obj
 0001:00010c80       _logical_kbd_read          00411080 f   kbddrv.obj
 0001:00010cd0       _logical_kbd_write         004110d0 f   kbddrv.obj
 0001:00010ce0       _logical_kbd_ioctl         004110e0 f   kbddrv.obj
 0001:00011f5c       $LN11                      0041235c     kdebug.obj
 0001:00012310       _get_function_name         00412710 f   kdebug.obj
 0001:000123a0       _get_src_dbg_info          004127a0 f   kdebug.obj
 0001:00012420       _nTTYOutChar               00412820 f   kdebug.obj
 0001:00012460       _internal_vcon_write       00412860 f   kdebug.obj
 0001:00012500       _get_dword_in_other_context 00412900 f   kdebug.obj
 0001:000125b0       _hw_break_option_gto_str   004129b0 f   kdebug.obj
 0001:000128d0       _wait_for_kmesg            00412cd0 f   kmesg.obj
 0001:00012a20       _find_kmesg                00412e20 f   kmesg.obj
 0001:00014630       _dwMakeProcessThreadID     00414a30 f   kprocess.obj
 0001:00014650       _append_process_to_sch_q   00414a50 f   kprocess.obj
 0001:00014700       _delete_process_from_sch_q 00414b00 f   kprocess.obj
 0001:000147a0       _nAppendThreadToList       00414ba0 f   kprocess.obj
 0001:00014830       _nDeleteThreadFromList     00414c30 f   kprocess.obj
 0001:000148a0       _append_Stack_link         00414ca0 f   kprocess.obj
 0001:00014920       _reserve_thread_stack      00414d20 f   kprocess.obj
 0001:00014b70       _get_thread_state_str      00414f70 f   kprocess.obj
 0001:00014bc0       _get_wait_type_str         00414fc0 f   kprocess.obj
 0001:00014c10       _insert_thread_to_process  00415010 f   kprocess.obj
 0001:00014ca0       _delete_thread_from_process 004150a0 f   kprocess.obj
 0001:00014d50       _alloc_addr_space          00415150 f   kprocess.obj
 0001:00014db0       _find_waitpid_thread       004151b0 f   kprocess.obj
 0001:00014e20       _link_to_zombie            00415220 f   kprocess.obj
 0001:00014eb0       _unlink_from_zombie        004152b0 f   kprocess.obj
 0001:00014f20       _duplicate_thread          00415320 f   kprocess.obj
 0001:00015060       _internal_kfork            00415460 f   kprocess.obj
 0001:00015350       _get_zombie_exit_code      00415750 f   kprocess.obj
 0001:000153d0       _kexecve_thread_entry      004157d0 f   kprocess.obj
 0001:00015400       _is_whitespace             00415800 f   kprocess.obj
 0001:00015640       _kdbg_disp_cmd_str         00415a40 f   kshell.obj
 0001:00015720       _kdbg_init_cmdstt          00415b20 f   kshell.obj
 0001:00015740       _vDelCell                  00415b40 f   kshell.obj
 0001:00015790       _vInsCell                  00415b90 f   kshell.obj
 0001:000157e0       _nGetPrevCmd               00415be0 f   kshell.obj
 0001:00015800       _nGetNextCmd               00415c00 f   kshell.obj
 0001:00015820       _kdbg_cmd_add_char         00415c20 f   kshell.obj
 0001:00015b6c       $LN41                      00415f6c     kshell.obj
 0001:00015b98       $LN40                      00415f98     kshell.obj
 0001:00015c40       _get_debug_function_key_str 00416040 f   kshell.obj
 0001:00015cc0       _kdbg_disp_prompt          004160c0 f   kshell.obj
 0001:00016234       $LN39                      00416634     kshlcmd.obj
 0001:000166b0       _kf_KC_HELP                00416ab0 f   kshlcmd.obj
 0001:00016750       _kf_KC_DUMP                00416b50 f   kshlcmd.obj
 0001:000167e0       _find_func_ent             00416be0 f   kshlcmd.obj
 0001:00016860       _kf_KC_UASM                00416c60 f   kshlcmd.obj
 0001:000169a0       _kf_KC_SRC                 00416da0 f   kshlcmd.obj
 0001:00016a70       _disp_module_symbol        00416e70 f   kshlcmd.obj
 0001:00016c40       _kf_KC_SYMBOL              00417040 f   kshlcmd.obj
 0001:00016d50       _kf_KC_INT3                00417150 f   kshlcmd.obj
 0001:00016ef0       _kf_KC_DUMPHDD             004172f0 f   kshlcmd.obj
 0001:00016f60       _kf_KC_BREAK               00417360 f   kshlcmd.obj
 0001:000170d0       _kf_KC_BC                  004174d0 f   kshlcmd.obj
 0001:00017120       _kf_KC_CLS                 00417520 f   kshlcmd.obj
 0001:00017130       _kf_KC_REBOOT              00417530 f   kshlcmd.obj
 0001:00017150       _kf_KC_REG                 00417550 f   kshlcmd.obj
 0001:00017180       _kf_KC_TSS                 00417580 f   kshlcmd.obj
 0001:000171a0       _kf_KC_DR                  004175a0 f   kshlcmd.obj
 0001:000171b0       _kf_KC_VER                 004175b0 f   kshlcmd.obj
 0001:000171c0       _kf_KC_GO                  004175c0 f   kshlcmd.obj
 0001:00017200       _kf_KC_TRACE               00417600 f   kshlcmd.obj
 0001:00017250       _kf_KC_PROCEED             00417650 f   kshlcmd.obj
 0001:00017290       _kf_KC_INT1                00417690 f   kshlcmd.obj
 0001:000172b0       _kf_KC_PROC                004176b0 f   kshlcmd.obj
 0001:000172f0       _kf_KC_THREAD              004176f0 f   kshlcmd.obj
 0001:00017330       _kf_KC_GDT                 00417730 f   kshlcmd.obj
 0001:00017350       _kf_KC_CHKMEM              00417750 f   kshlcmd.obj
 0001:00017370       _kf_KC_CUREIP              00417770 f   kshlcmd.obj
 0001:00017380       _kf_KC_FDDTEST             00417780 f   kshlcmd.obj
 0001:00017390       _kf_KC_EXEC                00417790 f   kshlcmd.obj
 0001:00017460       _kf_KC_IDT                 00417860 f   kshlcmd.obj
 0001:00017480       _kf_KC_STACK               00417880 f   kshlcmd.obj
 0001:000174f0       _kf_KC_KILL                004178f0 f   kshlcmd.obj
 0001:00017590       _kf_KC_MAP                 00417990 f   kshlcmd.obj
 0001:000176c0       _kf_KC_CDEV                00417ac0 f   kshlcmd.obj
 0001:00017750       _kf_KC_SHMEM               00417b50 f   kshlcmd.obj
 0001:00017760       _kf_KC_FG                  00417b60 f   kshlcmd.obj
 0001:00017810       _kf_CD_INFO                00417c10 f   kshlcmd.obj
 0001:000178c0       _kf_KC_SIGNAL              00417cc0 f   kshlcmd.obj
 0001:000179a0       _kf_KC_MODULE              00417da0 f   kshlcmd.obj
 0001:000179e0       _kf_KC_UNLOAD              00417de0 f   kshlcmd.obj
 0001:00017a20       _kf_KC_DBGINFO             00417e20 f   kshlcmd.obj
 0001:00017bc0       _kf_KC_PICK                00417fc0 f   kshlcmd.obj
 0001:00017c10       _kf_KC_EDITMEM             00418010 f   kshlcmd.obj
 0001:00017ca0       _kf_KC_VMODE               004180a0 f   kshlcmd.obj
 0001:00017cf0       _kf_KC_TIME                004180f0 f   kshlcmd.obj
 0001:00017d30       _kf_KC_L50                 00418130 f   kshlcmd.obj
 0001:00017d50       _kf_KC_L25                 00418150 f   kshlcmd.obj
 0001:00017d70       _kf_KC_ASM                 00418170 f   kshlcmd.obj
 0001:00017e70       _kf_KC_START_GUI           00418270 f   kshlcmd.obj
 0001:00017ec0       _kf_KC_V86LIB              004182c0 f   kshlcmd.obj
 0001:00017f00       _kf_KC_RESET_FDD           00418300 f   kshlcmd.obj
 0001:00017f90       _kf_KC_FILE_TEST           00418390 f   kshlcmd.obj
 0001:00018000       _kf_KC_VCON                00418400 f   kshlcmd.obj
 0001:00018010       _kf_KC_SCHQ                00418410 f   kshlcmd.obj
 0001:00018020       _kf_KC_ADDRS               00418420 f   kshlcmd.obj
 0001:000180a0       _kf_KC_TSTATE              004184a0 f   kshlcmd.obj
 0001:000182e0       _get_kc_func               004186e0 f   kshlcmd.obj
 0001:00018340       _kdbg_arg_parsing          00418740 f   kshlcmd.obj
 0001:000187e0       _system_call_handler       00418be0 f   ksyscall.obj
 0001:00018890       _sc_tty_out                00418c90 f   ksyscall.obj
 0001:000188b0       _sc_reg_export             00418cb0 f   ksyscall.obj
 0001:00018900       _sc_call_scheduler         00418d00 f   ksyscall.obj
 0001:00018910       _sc_getch                  00418d10 f   ksyscall.obj
 0001:00018930       _sc_malloc                 00418d30 f   ksyscall.obj
 0001:00018980       _sc_free                   00418d80 f   ksyscall.obj
 0001:000189c0       _sc_create_shmem           00418dc0 f   ksyscall.obj
 0001:00018a10       _sc_close_shmem            00418e10 f   ksyscall.obj
 0001:00018a40       _sc_attach_shmem           00418e40 f   ksyscall.obj
 0001:00018a80       _sc_detach_shmem           00418e80 f   ksyscall.obj
 0001:00018ac0       _sc_find_shmem             00418ec0 f   ksyscall.obj
 0001:00018b00       _sc_lock_shmem             00418f00 f   ksyscall.obj
 0001:00018b30       _sc_unlock_shmem           00418f30 f   ksyscall.obj
 0001:00018b60       _sc_open                   00418f60 f   ksyscall.obj
 0001:00018ba0       _sc_close                  00418fa0 f   ksyscall.obj
 0001:00018bd0       _sc_read                   00418fd0 f   ksyscall.obj
 0001:00018c40       _sc_write                  00419040 f   ksyscall.obj
 0001:00018c90       _sc_lseek                  00419090 f   ksyscall.obj
 0001:00018ce0       _sc_rename                 004190e0 f   ksyscall.obj
 0001:00018d20       _sc_delay                  00419120 f   ksyscall.obj
 0001:00018d40       _sc_pause                  00419140 f   ksyscall.obj
 0001:00018d50       _sc_get_cur_tid            00419150 f   ksyscall.obj
 0001:00018d70       _sc_get_sys_module_addr    00419170 f   ksyscall.obj
 0001:00018d80       _sc_get_module_handle      00419180 f   ksyscall.obj
 0001:00018da0       _ksc_tty_out               004191a0 f   ksyscall.obj
 0001:00018dc0       _ksc_get_cursor_xy         004191c0 f   ksyscall.obj
 0001:00018de0       _ksc_set_cursor_xy         004191e0 f   ksyscall.obj
 0001:00018e20       _ksc_set_fg_process        00419220 f   ksyscall.obj
 0001:00018e80       _ksc_kbhit                 00419280 f   ksyscall.obj
 0001:00018ea0       _ksc_opendir               004192a0 f   ksyscall.obj
 0001:00018ec0       _ksc_closedir              004192c0 f   ksyscall.obj
 0001:00018ee0       _ksc_readdir               004192e0 f   ksyscall.obj
 0001:00018f00       _ksc_direct_dispstr        00419300 f   ksyscall.obj
 0001:00018f20       _ksc_del_line              00419320 f   ksyscall.obj
 0001:00018f80       _ksc_fork                  00419380 f   ksyscall.obj
 0001:00018fa0       _ksc_wait                  004193a0 f   ksyscall.obj
 0001:00018fc0       _ksc_waitpid               004193c0 f   ksyscall.obj
 0001:00018fe0       _ksc_waittid               004193e0 f   ksyscall.obj
 0001:00019000       _ksc_exit                  00419400 f   ksyscall.obj
 0001:00019070       _ksc_execve                00419470 f   ksyscall.obj
 0001:000190a0       _ksc_sem_create            004194a0 f   ksyscall.obj
 0001:000190d0       _ksc_sem_open              004194d0 f   ksyscall.obj
 0001:000190f0       _ksc_sem_close             004194f0 f   ksyscall.obj
 0001:00019110       _ksc_sem_post              00419510 f   ksyscall.obj
 0001:00019130       _ksc_sem_wait              00419530 f   ksyscall.obj
 0001:00019150       _ksc_is_gui_mode           00419550 f   ksyscall.obj
 0001:00019160       _ksc_copy_kexecve_param    00419560 f   ksyscall.obj
 0001:000191e0       _ksc_get_time              004195e0 f   ksyscall.obj
 0001:00019200       _ksc_create_thread         00419600 f   ksyscall.obj
 0001:00019260       _ksc_set_fg_tid            00419660 f   ksyscall.obj
 0001:000192b0       _ksc_set_thread_alias      004196b0 f   ksyscall.obj
 0001:000192f0       _ksc_set_process_alias     004196f0 f   ksyscall.obj
 0001:00019330       _ksc_get_cur_pid           00419730 f   ksyscall.obj
 0001:00019390       _ksc_exit_user_thread      00419790 f   ksyscall.obj
 0001:00019400       _ksyscall_stub             00419800 f   ksyscall.obj
 0001:000197e0       _rva_to_offset             00419be0 f   Ldr.obj
 0001:00019860       _relocate_pe_image         00419c60 f   Ldr.obj
 0001:00019aa0       _mapping_for_section       00419ea0 f   Ldr.obj
 0001:00019c40       _pre_load_analysis         0041a040 f   Ldr.obj
 0001:0001a2f8       $LN28                      0041a6f8     Lucifer.obj
 0001:0001a320       $LN29                      0041a720     Lucifer.obj
 0001:0001b368       $LN94                      0041b768     Lucifer.obj
 0001:0001b3ac       $LN93                      0041b7ac     Lucifer.obj
 0001:0001b8d8       $LN31                      0041bcd8     Lucifer.obj
 0001:0001b900       $LN32                      0041bd00     Lucifer.obj
 0001:0001bd74       $LN41                      0041c174     Lucifer.obj
 0001:0001c078       $LN21                      0041c478     Lucifer.obj
 0001:0001c098       $LN20                      0041c498     Lucifer.obj
 0001:0001c29c       $LN13                      0041c69c     Lucifer.obj
 0001:0001cbc8       $LN71                      0041cfc8     Lucifer.obj
 0001:0001cbfc       $LN70                      0041cffc     Lucifer.obj
 0001:0001cc48       $LN72                      0041d048     Lucifer.obj
 0001:0001cfc0       _enlarge_memory_pool       0041d3c0 f   Malloc.obj
 0001:0001d160       _merge_memblk              0041d560 f   Malloc.obj
 0001:0001d270       _disp_memory_block         0041d670 f   Malloc.obj
 0001:0001d2e0       _get_mfl_index             0041d6e0 f   Malloc.obj
 0001:0001d360       _make_new_memory_block     0041d760 f   Malloc.obj
 0001:0001d3c0       _append_memblk_to_size_link 0041d7c0 f   Malloc.obj
 0001:0001d480       _delete_memblk_from_size_link 0041d880 f   Malloc.obj
 0001:0001d560       _split_memblk              0041d960 f   Malloc.obj
 0001:0001d5f0       _merge_this_memblk         0041d9f0 f   Malloc.obj
 0001:0001d700       _internal_malloc           0041db00 f   Malloc.obj
 0001:0001d8d0       _internal_free             0041dcd0 f   Malloc.obj
 0001:0001e180       _inc_shmem_chunk           0041e580 f   memory.obj
 0001:0001e1f0       _get_shmem_ent             0041e5f0 f   memory.obj
 0001:0001ea40       _insert_module_struct      0041ee40 f   module.obj
 0001:0001ead0       _delete_module_struct      0041eed0 f   module.obj
 0001:0001ec90       _kbd_obuff_full            0041f090 f   mouse.obj
 0001:0001ece0       _read_kbd_data             0041f0e0 f   mouse.obj
 0001:0001ed30       _write_kbd_data            0041f130 f   mouse.obj
 0001:0001ed70       _send_kbd_command          0041f170 f   mouse.obj
 0001:0001edb0       _kbd_ibuff_empty           0041f1b0 f   mouse.obj
 0001:0001f310       _nProcessExtGrp            0041f710 f   Myasm.obj
 0001:0001f520       $LN22                      0041f920     Myasm.obj
 0001:0001f564       $LN21                      0041f964     Myasm.obj
 0001:0001f5c0       _nInitTwoByteTbl           0041f9c0 f   Myasm.obj
 0001:0001f710       _nInitOneByteTbl           0041fb10 f   Myasm.obj
 0001:0001f860       _pSkipSpace                0041fc60 f   Myasm.obj
 0001:0001f8c0       _pGetToken                 0041fcc0 f   Myasm.obj
 0001:0001fae0       _dwGetValue                0041fee0 f   Myasm.obj
 0001:0001fb90       _nUppercase                0041ff90 f   Myasm.obj
 0001:0001fbf0       _nCmpStr                   0041fff0 f   Myasm.obj
 0001:0001fc60       _nIsOpCodeStr              00420060 f   Myasm.obj
 0001:0001fcf0       _nOpCodeAlias              004200f0 f   Myasm.obj
 0001:0001fd60       _nChkTokenType             00420160 f   Myasm.obj
 0001:0002021c       $LN44                      0042061c     Myasm.obj
 0001:00020238       $LN43                      00420638     Myasm.obj
 0001:00020250       _nLexer                    00420650 f   Myasm.obj
 0001:00020310       _nGetRegisterSize          00420710 f   Myasm.obj
 0001:000203a0       _pExpression               004207a0 f   Myasm.obj
 0001:000206e0       _pMemoryOperand            00420ae0 f   Myasm.obj
 0001:00020a80       _pSetOperand               00420e80 f   Myasm.obj
 0001:00020d00       _nParsing                  00421100 f   Myasm.obj
 0001:00020e20       _vDispOperand              00421220 f   Myasm.obj
 0001:00020ee0       _nIsMemory                 004212e0 f   Myasm.obj
 0001:00020f50       _nIsReg                    00421350 f   Myasm.obj
 0001:000210b8       $LN37                      004214b8     Myasm.obj
 0001:000210d4       $LN36                      004214d4     Myasm.obj
 0001:00021110       _nChkNumMemSize            00421510 f   Myasm.obj
 0001:000211d0       $LN24                      004215d0     Myasm.obj
 0001:000211e8       $LN23                      004215e8     Myasm.obj
 0001:00021230       _nChkRegSize               00421630 f   Myasm.obj
 0001:000212cc       $LN20                      004216cc     Myasm.obj
 0001:000212e0       $LN19                      004216e0     Myasm.obj
 0001:00021300       _nCompareOperand           00421700 f   Myasm.obj
 0001:000214fc       $LN32                      004218fc     Myasm.obj
 0001:00021550       _n_xx_GetOperandWeight     00421950 f   Myasm.obj
 0001:00021600       _nGetOperandWeight         00421a00 f   Myasm.obj
 0001:00021650       _vDispCodeEntry            00421a50 f   Myasm.obj
 0001:000216a0       _nCmpOperand1              00421aa0 f   Myasm.obj
 0001:00021810       _nCmpOperand2              00421c10 f   Myasm.obj
 0001:00021980       _nUpdateWeight             00421d80 f   Myasm.obj
 0001:000219b0       _nSearchSequence1          00421db0 f   Myasm.obj
 0001:00021a70       _nSearchSequence2          00421e70 f   Myasm.obj
 0001:00021b20       _nSearchCodeTable          00421f20 f   Myasm.obj
 0001:00021c30       _vDispOpnd                 00422030 f   Myasm.obj
 0001:00021cf0       _nChkOperandError          004220f0 f   Myasm.obj
 0001:00021d00       _nInheritSize              00422100 f   Myasm.obj
 0001:00021e00       _nGerRegBitCode            00422200 f   Myasm.obj
 0001:00021f40       _nRmIsMem                  00422340 f   Myasm.obj
 0001:00022458       $LN41                      00422858     Myasm.obj
 0001:0002247c       $LN40                      0042287c     Myasm.obj
 0001:000224a0       _nRmIsReg                  004228a0 f   Myasm.obj
 0001:00022560       _nRegField                 00422960 f   Myasm.obj
 0001:000225e0       _n_xx_MakeModRegRm         004229e0 f   Myasm.obj
 0001:000226f4       $LN21                      00422af4     Myasm.obj
 0001:00022708       $LN20                      00422b08     Myasm.obj
 0001:00022720       _nMakeModRegRm             00422b20 f   Myasm.obj
 0001:00022860       _nImmediateData            00422c60 f   Myasm.obj
 0001:00022910       _nDisplacement             00422d10 f   Myasm.obj
 0001:00022a10       _nRegFieldIsExt            00422e10 f   Myasm.obj
 0001:00022abc       $LN18                      00422ebc     Myasm.obj
 0001:00022ae0       _nMakeJumpOperand          00422ee0 f   Myasm.obj
 0001:00022b50       _nAssemble                 00422f50 f   Myasm.obj
 0001:00023238       $LN47                      00423638     Myasm.obj
 0001:00023250       _nGetMaxWeight             00423650 f   Myasm.obj
 0001:000233c0       _vDispAssembledCode        004237c0 f   Myasm.obj
 0001:00023420       _nWarpUpCode               00423820 f   Myasm.obj
 0001:00023560       _nRenderJumpAddr           00423960 f   Myasm.obj
 0001:00023700       _nRenderCallAddr           00423b00 f   Myasm.obj
 0001:00023e00       _chk_func_name             00424200 f   mydbg2.obj
 0001:00024f30       _nSetPDEntry               00425330 f   paging.obj
 0001:00024f70       _nSetPTEntry               00425370 f   paging.obj
 0001:00024fb0       _internal_mapping          004253b0 f   paging.obj
 0001:00025070       _nIncRefCount              00425470 f   paging.obj
 0001:000250c0       _nDecRefCount              004254c0 f   paging.obj
 0001:00025100       _mapping                   00425500 f   paging.obj
 0001:00025290       _find_next_linear2         00425690 f   paging.obj
 0001:00025360       _find_next_linear          00425760 f   paging.obj
 0001:000253d0       _get_next_pdptent          004257d0 f   paging.obj
 0001:000254d0       _get_prev_pdptent          004258d0 f   paging.obj
 0001:000255c0       _str_pdent_attr            004259c0 f   paging.obj
 0001:00025670       _str_ptent_attr            00425a70 f   paging.obj
 0001:00025740       _count_char                00425b40 f   paging.obj
 0001:00025c80       _get_pci_name              00426080 f   pci.obj
 0001:00025d10       _display_pci_info          00426110 f   pci.obj
 0001:00025e40       _read_pci_port_dword       00426240 f   pci.obj
 0001:00025e90       _read_pci_config_data      00426290 f   pci.obj
 0001:00026850       _check_waitobj_timeout     00426c50 f   schedule.obj
 0001:00026a40       _check_gui_timer_callout   00426e40 f   schedule.obj
 0001:00026b00       _down_schedule_level       00426f00 f   schedule.obj
 0001:00026b90       _get_next_sch_thread       00426f90 f   schedule.obj
 0001:00026c10       _kernel_idle               00427010 f   schedule.obj
 0001:00026c40       _up_schedule_level         00427040 f   schedule.obj
 0001:00026fc0       _find_semaphore_by_name    004273c0 f   semaph.obj
 0001:000270b0       _save_received_byte_to_sp  004274b0 f   serial.obj
 0001:00027120       _ser_irq_handling          00427520 f   serial.obj
 0001:000271f0       _serial_port_open          004275f0 f   serial.obj
 0001:000273d0       _serial_port_close         004277d0 f   serial.obj
 0001:00027410       _serial_port_read          00427810 f   serial.obj
 0001:000274a0       _serial_port_write         004278a0 f   serial.obj
 0001:00027600       _serial_port_ioctl         00427a00 f   serial.obj
 0001:00027610       _get_com_port_event        00427a10 f   serial.obj
 0001:00027a04       $LN21                      00427e04     Stk.obj
 0001:00027a20       _nGetOperatorValue         00427e20 f   Stk.obj
 0001:00027a64       $LN9                       00427e64     Stk.obj
 0001:00027e60       _disp_tss                  00428260 f   tss.obj
 0001:00027ef0       _make_tss                  004282f0 f   tss.obj
 0001:00028020       _pGetFlagStr               00428420 f   tss.obj
 0001:000283c0       _tty_open                  004287c0 f   tty.obj
 0001:000283d0       _tty_close                 004287d0 f   tty.obj
 0001:000283e0       _tty_read                  004287e0 f   tty.obj
 0001:000283f0       _tty_write                 004287f0 f   tty.obj
 0001:00028400       _tty_ioctl                 00428800 f   tty.obj
 0001:00029600       _internal_v86_system_call  00429a00 f   v86.obj
 0001:00029fc0       _find_fg_link              0042a3c0 f   vconsole.obj
 0001:0002a600       _get_mode_list             0042aa00 f   vesa.obj
 0001:0002a740       _get_mode_info             0042ab40 f   vesa.obj
 0001:0002a810       _get_vesa_mode_str         0042ac10 f   vesa.obj
 0001:0002a890       _vesa_linear_mapping       0042ac90 f   vesa.obj
 0001:0002a940       _find_vmode                0042ad40 f   vesa.obj
 0001:0002a990       $$000000                   0042ad90     asm.obj
 0001:0002ab80       $$000000                   0042af80     bcmos.obj
 0002:00000060       .edata                     0042b060     Bellona2.exp
 0002:00000088       rgpv                       0042b088     Bellona2.exp
 0002:00000188       rgszName                   0042b188     Bellona2.exp
 0002:00000288       rgwOrd                     0042b288     Bellona2.exp
 0002:00000308       szName                     0042b308     Bellona2.exp
 0002:00000315       $N00001                    0042b315     Bellona2.exp
 0002:00000327       $N00002                    0042b327     Bellona2.exp
 0002:0000033b       $N00003                    0042b33b     Bellona2.exp
 0002:00000347       $N00004                    0042b347     Bellona2.exp
 0002:00000354       $N00005                    0042b354     Bellona2.exp
 0002:00000364       $N00006                    0042b364     Bellona2.exp
 0002:0000036f       $N00007                    0042b36f     Bellona2.exp
 0002:0000037a       $N00008                    0042b37a     Bellona2.exp
 0002:00000389       $N00009                    0042b389     Bellona2.exp
 0002:0000039e       $N00010                    0042b39e     Bellona2.exp
 0002:000003b0       $N00011                    0042b3b0     Bellona2.exp
 0002:000003c4       $N00012                    0042b3c4     Bellona2.exp
 0002:000003cc       $N00013                    0042b3cc     Bellona2.exp
 0002:000003d4       $N00014                    0042b3d4     Bellona2.exp
 0002:000003e4       $N00015                    0042b3e4     Bellona2.exp
 0002:000003f4       $N00016                    0042b3f4     Bellona2.exp
 0002:000003ff       $N00017                    0042b3ff     Bellona2.exp
 0002:0000040e       $N00018                    0042b40e     Bellona2.exp
 0002:00000417       $N00019                    0042b417     Bellona2.exp
 0002:00000423       $N00020                    0042b423     Bellona2.exp
 0002:00000439       $N00021                    0042b439     Bellona2.exp
 0002:0000044d       $N00022                    0042b44d     Bellona2.exp
 0002:00000460       $N00023                    0042b460     Bellona2.exp
 0002:00000467       $N00024                    0042b467     Bellona2.exp
 0002:00000476       $N00025                    0042b476     Bellona2.exp
 0002:00000482       $N00026                    0042b482     Bellona2.exp
 0002:00000491       $N00027                    0042b491     Bellona2.exp
 0002:000004a9       $N00028                    0042b4a9     Bellona2.exp
 0002:000004af       $N00029                    0042b4af     Bellona2.exp
 0002:000004be       $N00030                    0042b4be     Bellona2.exp
 0002:000004ca       $N00031                    0042b4ca     Bellona2.exp
 0002:000004de       $N00032                    0042b4de     Bellona2.exp
 0002:000004e5       $N00033                    0042b4e5     Bellona2.exp
 0002:000004ed       $N00034                    0042b4ed     Bellona2.exp
 0002:000004f3       $N00035                    0042b4f3     Bellona2.exp
 0002:000004fa       $N00036                    0042b4fa     Bellona2.exp
 0002:00000500       $N00037                    0042b500     Bellona2.exp
 0002:0000050f       $N00038                    0042b50f     Bellona2.exp
 0002:0000051f       $N00039                    0042b51f     Bellona2.exp
 0002:00000528       $N00040                    0042b528     Bellona2.exp
 0002:00000532       $N00041                    0042b532     Bellona2.exp
 0002:00000539       $N00042                    0042b539     Bellona2.exp
 0002:00000540       $N00043                    0042b540     Bellona2.exp
 0002:0000054f       $N00044                    0042b54f     Bellona2.exp
 0002:00000562       $N00045                    0042b562     Bellona2.exp
 0002:00000578       $N00046                    0042b578     Bellona2.exp
 0002:0000058c       $N00047                    0042b58c     Bellona2.exp
 0002:0000059b       $N00048                    0042b59b     Bellona2.exp
 0002:000005ab       $N00049                    0042b5ab     Bellona2.exp
 0002:000005c0       $N00050                    0042b5c0     Bellona2.exp
 0002:000005d3       $N00051                    0042b5d3     Bellona2.exp
 0002:000005e7       $N00052                    0042b5e7     Bellona2.exp
 0002:000005fa       $N00053                    0042b5fa     Bellona2.exp
 0002:00000608       $N00054                    0042b608     Bellona2.exp
 0002:00000610       $N00055                    0042b610     Bellona2.exp
 0002:00000617       $N00056                    0042b617     Bellona2.exp
 0002:0000061e       $N00057                    0042b61e     Bellona2.exp
 0002:00000626       $N00058                    0042b626     Bellona2.exp
 0002:0000062d       $N00059                    0042b62d     Bellona2.exp
 0002:00000634       $N00060                    0042b634     Bellona2.exp
 0002:0000063a       $N00061                    0042b63a     Bellona2.exp
 0002:00000642       $N00062                    0042b642     Bellona2.exp
 0002:00000657       $N00063                    0042b657     Bellona2.exp
 0002:00000661       $N00064                    0042b661     Bellona2.exp
 0003:00000000       _ri_3c905b                 0042b800     3c905b.obj
 0003:00000300       $SG11659                   0042bb00     3c905b.obj
 0003:00000318       $SG11667                   0042bb18     3c905b.obj
 0003:00000354       _szDebugPrompt             0042bb54     bellona2.obj
 0003:00000358       $SG11535                   0042bb58     bellona2.obj
 0003:00000370       $SG11538                   0042bb70     bellona2.obj
 0003:00000388       $SG11539                   0042bb88     bellona2.obj
 0003:000003a0       $SG11540                   0042bba0     bellona2.obj
 0003:000003ac       $SG11541                   0042bbac     bellona2.obj
 0003:000003b8       $SG11542                   0042bbb8     bellona2.obj
 0003:000003d4       $SG11543                   0042bbd4     bellona2.obj
 0003:000003ec       $SG11545                   0042bbec     bellona2.obj
 0003:000003f8       $SG11546                   0042bbf8     bellona2.obj
 0003:00000400       $SG11547                   0042bc00     bellona2.obj
 0003:0000040c       $SG11548                   0042bc0c     bellona2.obj
 0003:00000414       $SG11549                   0042bc14     bellona2.obj
 0003:00000420       $SG11550                   0042bc20     bellona2.obj
 0003:0000042c       $SG11551                   0042bc2c     bellona2.obj
 0003:00000438       $SG11552                   0042bc38     bellona2.obj
 0003:00000444       $SG11556                   0042bc44     bellona2.obj
 0003:00000458       $SG11509                   0042bc58     cdrom.obj
 0003:000014c4       $SG11426                   0042ccc4     Codetbl.obj
 0003:000019cc       $SG11427                   0042d1cc     Codetbl.obj
 0003:000019d0       $SG11428                   0042d1d0     Codetbl.obj
 0003:000019d4       $SG11429                   0042d1d4     Codetbl.obj
 0003:000019d8       $SG11430                   0042d1d8     Codetbl.obj
 0003:000019dc       $SG11431                   0042d1dc     Codetbl.obj
 0003:000019e0       $SG11432                   0042d1e0     Codetbl.obj
 0003:000019e4       $SG11433                   0042d1e4     Codetbl.obj
 0003:000019f0       $SG11434                   0042d1f0     Codetbl.obj
 0003:000019f4       $SG11435                   0042d1f4     Codetbl.obj
 0003:000019fc       $SG11436                   0042d1fc     Codetbl.obj
 0003:00001a04       $SG11437                   0042d204     Codetbl.obj
 0003:00001a08       $SG11438                   0042d208     Codetbl.obj
 0003:00001a0c       $SG11439                   0042d20c     Codetbl.obj
 0003:00001a14       $SG11440                   0042d214     Codetbl.obj
 0003:00001a18       $SG11441                   0042d218     Codetbl.obj
 0003:00001a1c       $SG11442                   0042d21c     Codetbl.obj
 0003:00001a20       $SG11443                   0042d220     Codetbl.obj
 0003:00001a24       $SG11444                   0042d224     Codetbl.obj
 0003:00001a2c       $SG11445                   0042d22c     Codetbl.obj
 0003:00001a30       $SG11446                   0042d230     Codetbl.obj
 0003:00001a34       $SG11447                   0042d234     Codetbl.obj
 0003:00001a38       $SG11448                   0042d238     Codetbl.obj
 0003:00001a3c       $SG11449                   0042d23c     Codetbl.obj
 0003:00001a40       $SG11450                   0042d240     Codetbl.obj
 0003:00001a48       $SG11451                   0042d248     Codetbl.obj
 0003:00001a4c       $SG11452                   0042d24c     Codetbl.obj
 0003:00001a50       $SG11453                   0042d250     Codetbl.obj
 0003:00001a58       $SG11454                   0042d258     Codetbl.obj
 0003:00001a60       $SG11455                   0042d260     Codetbl.obj
 0003:00001a68       $SG11456                   0042d268     Codetbl.obj
 0003:00001a70       $SG11457                   0042d270     Codetbl.obj
 0003:00001a78       $SG11458                   0042d278     Codetbl.obj
 0003:00001a7c       $SG11459                   0042d27c     Codetbl.obj
 0003:00001a84       $SG11460                   0042d284     Codetbl.obj
 0003:00001a88       $SG11461                   0042d288     Codetbl.obj
 0003:00001a8c       $SG11462                   0042d28c     Codetbl.obj
 0003:00001a90       $SG11463                   0042d290     Codetbl.obj
 0003:00001a94       $SG11464                   0042d294     Codetbl.obj
 0003:00001a9c       $SG11465                   0042d29c     Codetbl.obj
 0003:00001aa4       $SG11466                   0042d2a4     Codetbl.obj
 0003:00001aac       $SG11467                   0042d2ac     Codetbl.obj
 0003:00001ab4       $SG11468                   0042d2b4     Codetbl.obj
 0003:00001abc       $SG11469                   0042d2bc     Codetbl.obj
 0003:00001ac4       $SG11470                   0042d2c4     Codetbl.obj
 0003:00001acc       $SG11471                   0042d2cc     Codetbl.obj
 0003:00001ad4       $SG11472                   0042d2d4     Codetbl.obj
 0003:00001adc       $SG11473                   0042d2dc     Codetbl.obj
 0003:00001ae4       $SG11474                   0042d2e4     Codetbl.obj
 0003:00001aec       $SG11475                   0042d2ec     Codetbl.obj
 0003:00001af4       $SG11476                   0042d2f4     Codetbl.obj
 0003:00001afc       $SG11477                   0042d2fc     Codetbl.obj
 0003:00001b04       $SG11478                   0042d304     Codetbl.obj
 0003:00001b0c       $SG11479                   0042d30c     Codetbl.obj
 0003:00001b14       $SG11480                   0042d314     Codetbl.obj
 0003:00001b1c       $SG11481                   0042d31c     Codetbl.obj
 0003:00001b24       $SG11482                   0042d324     Codetbl.obj
 0003:00001b2c       $SG11483                   0042d32c     Codetbl.obj
 0003:00001b34       $SG11484                   0042d334     Codetbl.obj
 0003:00001b3c       $SG11485                   0042d33c     Codetbl.obj
 0003:00001b44       $SG11486                   0042d344     Codetbl.obj
 0003:00001b4c       $SG11487                   0042d34c     Codetbl.obj
 0003:00001b54       $SG11488                   0042d354     Codetbl.obj
 0003:00001b5c       $SG11489                   0042d35c     Codetbl.obj
 0003:00001b64       $SG11490                   0042d364     Codetbl.obj
 0003:00001b6c       $SG11491                   0042d36c     Codetbl.obj
 0003:00001b74       $SG11492                   0042d374     Codetbl.obj
 0003:00001b7c       $SG11493                   0042d37c     Codetbl.obj
 0003:00001b84       $SG11494                   0042d384     Codetbl.obj
 0003:00001b8c       $SG11495                   0042d38c     Codetbl.obj
 0003:00001b94       $SG11496                   0042d394     Codetbl.obj
 0003:00001b9c       $SG11497                   0042d39c     Codetbl.obj
 0003:00001ba4       $SG11498                   0042d3a4     Codetbl.obj
 0003:00001bac       $SG11499                   0042d3ac     Codetbl.obj
 0003:00001bb4       $SG11500                   0042d3b4     Codetbl.obj
 0003:00001bbc       $SG11501                   0042d3bc     Codetbl.obj
 0003:00001bc0       $SG11502                   0042d3c0     Codetbl.obj
 0003:00001bc8       $SG11503                   0042d3c8     Codetbl.obj
 0003:00001bd0       $SG11504                   0042d3d0     Codetbl.obj
 0003:00001bd8       $SG11505                   0042d3d8     Codetbl.obj
 0003:00001be0       $SG11506                   0042d3e0     Codetbl.obj
 0003:00001be8       $SG11507                   0042d3e8     Codetbl.obj
 0003:00001bf0       $SG11508                   0042d3f0     Codetbl.obj
 0003:00001bf8       $SG11509                   0042d3f8     Codetbl.obj
 0003:00001c00       $SG11510                   0042d400     Codetbl.obj
 0003:00001c08       $SG11511                   0042d408     Codetbl.obj
 0003:00001c10       $SG11512                   0042d410     Codetbl.obj
 0003:00001c18       $SG11513                   0042d418     Codetbl.obj
 0003:00001c20       $SG11514                   0042d420     Codetbl.obj
 0003:00001c28       $SG11515                   0042d428     Codetbl.obj
 0003:00001c30       $SG11516                   0042d430     Codetbl.obj
 0003:00001c38       $SG11517                   0042d438     Codetbl.obj
 0003:00001c40       $SG11518                   0042d440     Codetbl.obj
 0003:00001c48       $SG11519                   0042d448     Codetbl.obj
 0003:00001c50       $SG11520                   0042d450     Codetbl.obj
 0003:00001c58       $SG11521                   0042d458     Codetbl.obj
 0003:00001c60       $SG11522                   0042d460     Codetbl.obj
 0003:00001c68       $SG11523                   0042d468     Codetbl.obj
 0003:00001c70       $SG11524                   0042d470     Codetbl.obj
 0003:00001c78       $SG11525                   0042d478     Codetbl.obj
 0003:00001c7c       $SG11526                   0042d47c     Codetbl.obj
 0003:00001c84       $SG11527                   0042d484     Codetbl.obj
 0003:00001c8c       $SG11528                   0042d48c     Codetbl.obj
 0003:00001c94       $SG11529                   0042d494     Codetbl.obj
 0003:00001c9c       $SG11530                   0042d49c     Codetbl.obj
 0003:00001ca4       $SG11531                   0042d4a4     Codetbl.obj
 0003:00001cac       $SG11532                   0042d4ac     Codetbl.obj
 0003:00001cb4       $SG11533                   0042d4b4     Codetbl.obj
 0003:00001cbc       $SG11534                   0042d4bc     Codetbl.obj
 0003:00001cc4       $SG11535                   0042d4c4     Codetbl.obj
 0003:00001ccc       $SG11536                   0042d4cc     Codetbl.obj
 0003:00001cd4       $SG11537                   0042d4d4     Codetbl.obj
 0003:00001cdc       $SG11538                   0042d4dc     Codetbl.obj
 0003:00001ce4       $SG11539                   0042d4e4     Codetbl.obj
 0003:00001cec       $SG11540                   0042d4ec     Codetbl.obj
 0003:00001cf4       $SG11541                   0042d4f4     Codetbl.obj
 0003:00001cfc       $SG11542                   0042d4fc     Codetbl.obj
 0003:00001d04       $SG11543                   0042d504     Codetbl.obj
 0003:00001d0c       $SG11544                   0042d50c     Codetbl.obj
 0003:00001d14       $SG11545                   0042d514     Codetbl.obj
 0003:00001d1c       $SG11546                   0042d51c     Codetbl.obj
 0003:00001d24       $SG11547                   0042d524     Codetbl.obj
 0003:00001d2c       $SG11548                   0042d52c     Codetbl.obj
 0003:00001d34       $SG11549                   0042d534     Codetbl.obj
 0003:00001d3c       $SG11550                   0042d53c     Codetbl.obj
 0003:00001d44       $SG11551                   0042d544     Codetbl.obj
 0003:00001d4c       $SG11552                   0042d54c     Codetbl.obj
 0003:00001d50       $SG11553                   0042d550     Codetbl.obj
 0003:00001d58       $SG11554                   0042d558     Codetbl.obj
 0003:00001d60       $SG11555                   0042d560     Codetbl.obj
 0003:00001d64       $SG11556                   0042d564     Codetbl.obj
 0003:00001d68       $SG11557                   0042d568     Codetbl.obj
 0003:00001d70       $SG11558                   0042d570     Codetbl.obj
 0003:00001d78       $SG11559                   0042d578     Codetbl.obj
 0003:00001d80       $SG11560                   0042d580     Codetbl.obj
 0003:00001d84       $SG11561                   0042d584     Codetbl.obj
 0003:00001d8c       $SG11562                   0042d58c     Codetbl.obj
 0003:00001d94       $SG11563                   0042d594     Codetbl.obj
 0003:00001d9c       $SG11564                   0042d59c     Codetbl.obj
 0003:00001da4       $SG11565                   0042d5a4     Codetbl.obj
 0003:00001dac       $SG11566                   0042d5ac     Codetbl.obj
 0003:00001db4       $SG11567                   0042d5b4     Codetbl.obj
 0003:00001db8       $SG11568                   0042d5b8     Codetbl.obj
 0003:00001dbc       $SG11569                   0042d5bc     Codetbl.obj
 0003:00001dc4       $SG11570                   0042d5c4     Codetbl.obj
 0003:00001dc8       $SG11571                   0042d5c8     Codetbl.obj
 0003:00001dcc       $SG11572                   0042d5cc     Codetbl.obj
 0003:00001dd0       $SG11573                   0042d5d0     Codetbl.obj
 0003:00001dd4       $SG11574                   0042d5d4     Codetbl.obj
 0003:00001ddc       $SG11575                   0042d5dc     Codetbl.obj
 0003:00001de0       $SG11576                   0042d5e0     Codetbl.obj
 0003:00001de8       $SG11577                   0042d5e8     Codetbl.obj
 0003:00001dec       $SG11578                   0042d5ec     Codetbl.obj
 0003:00001df0       $SG11579                   0042d5f0     Codetbl.obj
 0003:00001df4       $SG11580                   0042d5f4     Codetbl.obj
 0003:00001df8       $SG11581                   0042d5f8     Codetbl.obj
 0003:00001dfc       $SG11582                   0042d5fc     Codetbl.obj
 0003:00001e00       $SG11583                   0042d600     Codetbl.obj
 0003:00001e04       $SG11584                   0042d604     Codetbl.obj
 0003:00001e08       $SG11585                   0042d608     Codetbl.obj
 0003:00001e10       $SG11586                   0042d610     Codetbl.obj
 0003:00001e14       $SG11587                   0042d614     Codetbl.obj
 0003:00001e18       $SG11588                   0042d618     Codetbl.obj
 0003:00001e1c       $SG11589                   0042d61c     Codetbl.obj
 0003:00001e24       $SG11590                   0042d624     Codetbl.obj
 0003:00001e28       $SG11591                   0042d628     Codetbl.obj
 0003:00001e2c       $SG11592                   0042d62c     Codetbl.obj
 0003:00001e34       $SG11593                   0042d634     Codetbl.obj
 0003:00001e38       $SG11594                   0042d638     Codetbl.obj
 0003:00001e40       $SG11595                   0042d640     Codetbl.obj
 0003:00001e48       $SG11596                   0042d648     Codetbl.obj
 0003:00001e50       $SG11597                   0042d650     Codetbl.obj
 0003:00001e58       $SG11598                   0042d658     Codetbl.obj
 0003:00001e60       $SG11599                   0042d660     Codetbl.obj
 0003:00001e68       $SG11600                   0042d668     Codetbl.obj
 0003:00001e70       $SG11601                   0042d670     Codetbl.obj
 0003:00001e78       $SG11602                   0042d678     Codetbl.obj
 0003:00001e80       $SG11603                   0042d680     Codetbl.obj
 0003:00001e88       $SG11604                   0042d688     Codetbl.obj
 0003:00001e8c       $SG11605                   0042d68c     Codetbl.obj
 0003:00001e90       $SG11606                   0042d690     Codetbl.obj
 0003:00001e94       $SG11607                   0042d694     Codetbl.obj
 0003:00001e98       $SG11608                   0042d698     Codetbl.obj
 0003:00001ea0       $SG11609                   0042d6a0     Codetbl.obj
 0003:00001ea8       $SG11610                   0042d6a8     Codetbl.obj
 0003:00001eb0       $SG11611                   0042d6b0     Codetbl.obj
 0003:00001eb8       $SG11612                   0042d6b8     Codetbl.obj
 0003:00001ec0       $SG11613                   0042d6c0     Codetbl.obj
 0003:00001ec4       $SG11614                   0042d6c4     Codetbl.obj
 0003:00001ec8       $SG11615                   0042d6c8     Codetbl.obj
 0003:00001ecc       $SG11616                   0042d6cc     Codetbl.obj
 0003:00001ed0       $SG11617                   0042d6d0     Codetbl.obj
 0003:00001edc       $SG11618                   0042d6dc     Codetbl.obj
 0003:00001ee0       $SG11619                   0042d6e0     Codetbl.obj
 0003:00001ee4       $SG11620                   0042d6e4     Codetbl.obj
 0003:00001eec       $SG11621                   0042d6ec     Codetbl.obj
 0003:00001ef4       $SG11622                   0042d6f4     Codetbl.obj
 0003:00001efc       $SG11623                   0042d6fc     Codetbl.obj
 0003:00001f00       $SG11624                   0042d700     Codetbl.obj
 0003:00001f08       $SG11625                   0042d708     Codetbl.obj
 0003:00001f10       $SG11626                   0042d710     Codetbl.obj
 0003:00001f18       $SG11627                   0042d718     Codetbl.obj
 0003:00001f20       $SG11628                   0042d720     Codetbl.obj
 0003:00001f28       $SG11629                   0042d728     Codetbl.obj
 0003:00001f30       $SG11630                   0042d730     Codetbl.obj
 0003:00001f38       $SG11631                   0042d738     Codetbl.obj
 0003:00001f40       $SG11632                   0042d740     Codetbl.obj
 0003:00001f48       $SG11633                   0042d748     Codetbl.obj
 0003:00001f4c       $SG11634                   0042d74c     Codetbl.obj
 0003:00001f50       $SG11635                   0042d750     Codetbl.obj
 0003:00001f54       $SG11636                   0042d754     Codetbl.obj
 0003:00001f5c       $SG11637                   0042d75c     Codetbl.obj
 0003:00001f64       $SG11638                   0042d764     Codetbl.obj
 0003:00001f6c       $SG11639                   0042d76c     Codetbl.obj
 0003:00001f70       $SG11640                   0042d770     Codetbl.obj
 0003:00001f74       $SG11641                   0042d774     Codetbl.obj
 0003:00001f78       $SG11642                   0042d778     Codetbl.obj
 0003:00001f80       $SG11643                   0042d780     Codetbl.obj
 0003:00001f84       $SG11644                   0042d784     Codetbl.obj
 0003:00001f88       $SG11645                   0042d788     Codetbl.obj
 0003:00001f90       $SG11646                   0042d790     Codetbl.obj
 0003:00001f98       $SG11647                   0042d798     Codetbl.obj
 0003:00001fa0       $SG11648                   0042d7a0     Codetbl.obj
 0003:00001fa8       $SG11649                   0042d7a8     Codetbl.obj
 0003:00001fb0       $SG11650                   0042d7b0     Codetbl.obj
 0003:00001fb8       $SG11651                   0042d7b8     Codetbl.obj
 0003:00001fc0       $SG11652                   0042d7c0     Codetbl.obj
 0003:00001fc8       $SG11653                   0042d7c8     Codetbl.obj
 0003:00001fd0       $SG11654                   0042d7d0     Codetbl.obj
 0003:00001fd8       $SG11655                   0042d7d8     Codetbl.obj
 0003:00001fe0       $SG11656                   0042d7e0     Codetbl.obj
 0003:00001fe8       $SG11657                   0042d7e8     Codetbl.obj
 0003:00001ff0       $SG11658                   0042d7f0     Codetbl.obj
 0003:00001ff8       $SG11659                   0042d7f8     Codetbl.obj
 0003:00002000       $SG11660                   0042d800     Codetbl.obj
 0003:00002008       $SG11661                   0042d808     Codetbl.obj
 0003:00002010       $SG11662                   0042d810     Codetbl.obj
 0003:00002018       $SG11663                   0042d818     Codetbl.obj
 0003:00002020       $SG11664                   0042d820     Codetbl.obj
 0003:00002028       $SG11665                   0042d828     Codetbl.obj
 0003:00002030       $SG11666                   0042d830     Codetbl.obj
 0003:00002034       $SG11667                   0042d834     Codetbl.obj
 0003:0000203c       $SG11668                   0042d83c     Codetbl.obj
 0003:00002040       $SG11669                   0042d840     Codetbl.obj
 0003:00002048       $SG11670                   0042d848     Codetbl.obj
 0003:00002050       $SG11671                   0042d850     Codetbl.obj
 0003:00002058       $SG11672                   0042d858     Codetbl.obj
 0003:00002060       $SG11673                   0042d860     Codetbl.obj
 0003:00002064       $SG11674                   0042d864     Codetbl.obj
 0003:00002068       $SG11675                   0042d868     Codetbl.obj
 0003:0000206c       $SG11676                   0042d86c     Codetbl.obj
 0003:00002074       $SG11677                   0042d874     Codetbl.obj
 0003:0000207c       $SG11678                   0042d87c     Codetbl.obj
 0003:00002084       $SG11679                   0042d884     Codetbl.obj
 0003:00002088       $SG11680                   0042d888     Codetbl.obj
 0003:0000208c       $SG11681                   0042d88c     Codetbl.obj
 0003:00002094       $SG11682                   0042d894     Codetbl.obj
 0003:0000209c       $SG11683                   0042d89c     Codetbl.obj
 0003:000020a4       $SG11684                   0042d8a4     Codetbl.obj
 0003:000020ac       $SG11685                   0042d8ac     Codetbl.obj
 0003:000020b4       $SG11686                   0042d8b4     Codetbl.obj
 0003:000020bc       $SG11687                   0042d8bc     Codetbl.obj
 0003:000020c4       $SG11688                   0042d8c4     Codetbl.obj
 0003:000020cc       $SG11689                   0042d8cc     Codetbl.obj
 0003:000020d0       $SG11690                   0042d8d0     Codetbl.obj
 0003:000020d8       $SG11699                   0042d8d8     Codetbl.obj
 0003:000020dc       $SG11701                   0042d8dc     Codetbl.obj
 0003:000020e0       $SG11703                   0042d8e0     Codetbl.obj
 0003:000020e4       $SG11705                   0042d8e4     Codetbl.obj
 0003:000020e8       $SG11707                   0042d8e8     Codetbl.obj
 0003:000020ec       $SG11709                   0042d8ec     Codetbl.obj
 0003:000020f0       $SG11711                   0042d8f0     Codetbl.obj
 0003:000020f4       $SG11713                   0042d8f4     Codetbl.obj
 0003:000020f8       $SG11715                   0042d8f8     Codetbl.obj
 0003:000020fc       $SG11717                   0042d8fc     Codetbl.obj
 0003:00002100       $SG11719                   0042d900     Codetbl.obj
 0003:00002104       $SG11721                   0042d904     Codetbl.obj
 0003:00002108       $SG11723                   0042d908     Codetbl.obj
 0003:0000210c       $SG11725                   0042d90c     Codetbl.obj
 0003:00002110       $SG11727                   0042d910     Codetbl.obj
 0003:00002114       $SG11729                   0042d914     Codetbl.obj
 0003:00002118       $SG11731                   0042d918     Codetbl.obj
 0003:0000211c       $SG11733                   0042d91c     Codetbl.obj
 0003:00002120       $SG11735                   0042d920     Codetbl.obj
 0003:00002124       $SG11737                   0042d924     Codetbl.obj
 0003:00002128       $SG11739                   0042d928     Codetbl.obj
 0003:0000212c       $SG11741                   0042d92c     Codetbl.obj
 0003:00002130       $SG11743                   0042d930     Codetbl.obj
 0003:00002134       $SG11745                   0042d934     Codetbl.obj
 0003:00002138       $SG11747                   0042d938     Codetbl.obj
 0003:0000213c       $SG11749                   0042d93c     Codetbl.obj
 0003:00002140       $SG11751                   0042d940     Codetbl.obj
 0003:00002144       $SG11753                   0042d944     Codetbl.obj
 0003:00002148       $SG11755                   0042d948     Codetbl.obj
 0003:0000214c       $SG11757                   0042d94c     Codetbl.obj
 0003:00002150       $SG11759                   0042d950     Codetbl.obj
 0003:00002154       $SG11761                   0042d954     Codetbl.obj
 0003:00002158       $SG11763                   0042d958     Codetbl.obj
 0003:0000215c       $SG11765                   0042d95c     Codetbl.obj
 0003:00002160       $SG11767                   0042d960     Codetbl.obj
 0003:00002164       $SG11769                   0042d964     Codetbl.obj
 0003:00002168       $SG11771                   0042d968     Codetbl.obj
 0003:0000216c       $SG11773                   0042d96c     Codetbl.obj
 0003:00002170       $SG11775                   0042d970     Codetbl.obj
 0003:00002174       $SG11777                   0042d974     Codetbl.obj
 0003:00002178       $SG11779                   0042d978     Codetbl.obj
 0003:0000217c       $SG11781                   0042d97c     Codetbl.obj
 0003:00002180       $SG11783                   0042d980     Codetbl.obj
 0003:00002184       $SG11785                   0042d984     Codetbl.obj
 0003:00002188       $SG11787                   0042d988     Codetbl.obj
 0003:0000218c       $SG11789                   0042d98c     Codetbl.obj
 0003:00002190       $SG11791                   0042d990     Codetbl.obj
 0003:00002194       $SG11793                   0042d994     Codetbl.obj
 0003:00002198       $SG11795                   0042d998     Codetbl.obj
 0003:0000219c       $SG11797                   0042d99c     Codetbl.obj
 0003:000021a0       $SG11799                   0042d9a0     Codetbl.obj
 0003:000021a4       $SG11801                   0042d9a4     Codetbl.obj
 0003:000021a8       $SG11803                   0042d9a8     Codetbl.obj
 0003:000021ac       $SG11805                   0042d9ac     Codetbl.obj
 0003:000021b0       $SG11807                   0042d9b0     Codetbl.obj
 0003:000021b4       $SG11809                   0042d9b4     Codetbl.obj
 0003:000021bc       $SG11811                   0042d9bc     Codetbl.obj
 0003:000021c4       $SG11813                   0042d9c4     Codetbl.obj
 0003:000021cc       $SG11815                   0042d9cc     Codetbl.obj
 0003:000021d4       $SG11817                   0042d9d4     Codetbl.obj
 0003:000021dc       $SG11819                   0042d9dc     Codetbl.obj
 0003:000021e4       $SG11821                   0042d9e4     Codetbl.obj
 0003:000021ec       $SG11823                   0042d9ec     Codetbl.obj
 0003:000021f4       $SG11422                   0042d9f4     cs.obj
 0003:000021f8       $SG11424                   0042d9f8     cs.obj
 0003:00002208       $SG11484                   0042da08     dbgreg.obj
 0003:0000223c       $SG11501                   0042da3c     dbgreg.obj
 0003:00002268       $SG11522                   0042da68     dbgreg.obj
 0003:00002278       $SG11523                   0042da78     dbgreg.obj
 0003:00002284       $SG11524                   0042da84     dbgreg.obj
 0003:00002290       $SG11525                   0042da90     dbgreg.obj
 0003:0000229c       $SG11526                   0042da9c     dbgreg.obj
 0003:000022a4       $SG11527                   0042daa4     dbgreg.obj
 0003:000022b4       $SG11528                   0042dab4     dbgreg.obj
 0003:000022c0       $SG11529                   0042dac0     dbgreg.obj
 0003:000022cc       $SG11530                   0042dacc     dbgreg.obj
 0003:000022d8       $SG11531                   0042dad8     dbgreg.obj
 0003:000022e4       $SG11532                   0042dae4     dbgreg.obj
 0003:00002318       $SG11533                   0042db18     dbgreg.obj
 0003:00002350       $SG11422                   0042db50     event.obj
 0003:00002358       $SG11423                   0042db58     event.obj
 0003:00002364       $SG11424                   0042db64     event.obj
 0003:00002374       $SG11425                   0042db74     event.obj
 0003:00002388       $SG11426                   0042db88     event.obj
 0003:00002390       $SG11427                   0042db90     event.obj
 0003:0000239c       $SG11428                   0042db9c     event.obj
 0003:000023a8       $SG11429                   0042dba8     event.obj
 0003:000023b4       $SG11430                   0042dbb4     event.obj
 0003:000023c0       $SG11431                   0042dbc0     event.obj
 0003:000023c8       $SG11672                   0042dbc8     event.obj
 0003:000023d0       _system_events             0042dbd0     event.obj
 0003:00002428       $SG11476                   0042dc28     export.obj
 0003:00002440       $SG11514                   0042dc40     fdd.obj
 0003:0000244c       $SG11515                   0042dc4c     fdd.obj
 0003:0000245c       $SG11516                   0042dc5c     fdd.obj
 0003:00002470       $SG11517                   0042dc70     fdd.obj
 0003:00002484       $SG11518                   0042dc84     fdd.obj
 0003:00002490       $SG11519                   0042dc90     fdd.obj
 0003:0000249c       $SG11520                   0042dc9c     fdd.obj
 0003:000024a8       $SG11521                   0042dca8     fdd.obj
 0003:000024b8       $SG11522                   0042dcb8     fdd.obj
 0003:000024cc       $SG11523                   0042dccc     fdd.obj
 0003:000024e4       $SG11524                   0042dce4     fdd.obj
 0003:000024f0       $SG11525                   0042dcf0     fdd.obj
 0003:00002500       $SG11526                   0042dd00     fdd.obj
 0003:0000250c       $SG11527                   0042dd0c     fdd.obj
 0003:00002518       $SG11528                   0042dd18     fdd.obj
 0003:00002528       $SG11529                   0042dd28     fdd.obj
 0003:00002544       _nPrevTrack                0042dd44     fdd.obj
 0003:00002548       _nPrevSide                 0042dd48     fdd.obj
 0003:0000254c       $SG11435                   0042dd4c     fdd.obj
 0003:00002564       $SG11450                   0042dd64     fdd.obj
 0003:0000257c       $SG11545                   0042dd7c     fdd.obj
 0003:00002590       _fdd_status                0042dd90     fdd.obj
 0003:0000265c       $SG11653                   0042de5c     fdd.obj
 0003:00002690       $SG11654                   0042de90     fdd.obj
 0003:000026a8       $SG11657                   0042dea8     fdd.obj
 0003:000026b0       $SG11658                   0042deb0     fdd.obj
 0003:000026d4       $SG11659                   0042ded4     fdd.obj
 0003:000026f0       $SG11662                   0042def0     fdd.obj
 0003:000026f8       $SG11663                   0042def8     fdd.obj
 0003:0000271c       $SG11465                   0042df1c     fork.obj
 0003:00002744       $SG11467                   0042df44     fork.obj
 0003:0000275c       $SG11558                   0042df5c     Gdt.obj
 0003:00002760       $SG11559                   0042df60     Gdt.obj
 0003:00002764       $SG11562                   0042df64     Gdt.obj
 0003:00002768       $SG11563                   0042df68     Gdt.obj
 0003:0000276c       $SG11566                   0042df6c     Gdt.obj
 0003:00002770       $SG11567                   0042df70     Gdt.obj
 0003:00002774       $SG11570                   0042df74     Gdt.obj
 0003:00002778       $SG11571                   0042df78     Gdt.obj
 0003:0000277c       $SG11596                   0042df7c     Gdt.obj
 0003:00002784       $SG11598                   0042df84     Gdt.obj
 0003:00002790       $SG11601                   0042df90     Gdt.obj
 0003:0000279c       $SG11602                   0042df9c     Gdt.obj
 0003:000027a8       $SG11603                   0042dfa8     Gdt.obj
 0003:000027b0       $SG11606                   0042dfb0     Gdt.obj
 0003:000027c0       $SG11607                   0042dfc0     Gdt.obj
 0003:000027cc       $SG11609                   0042dfcc     Gdt.obj
 0003:000027d8       $SG11611                   0042dfd8     Gdt.obj
 0003:000027e4       $SG11613                   0042dfe4     Gdt.obj
 0003:000027ec       $SG11615                   0042dfec     Gdt.obj
 0003:000027f0       $SG11617                   0042dff0     Gdt.obj
 0003:000027fc       $SG11619                   0042dffc     Gdt.obj
 0003:00002808       $SG11621                   0042e008     Gdt.obj
 0003:00002814       $SG11623                   0042e014     Gdt.obj
 0003:00002820       $SG11625                   0042e020     Gdt.obj
 0003:0000282c       $SG11627                   0042e02c     Gdt.obj
 0003:00002838       $SG11629                   0042e038     Gdt.obj
 0003:00002840       $SG11631                   0042e040     Gdt.obj
 0003:0000284c       $SG11633                   0042e04c     Gdt.obj
 0003:00002858       $SG11635                   0042e058     Gdt.obj
 0003:00002864       $SG11637                   0042e064     Gdt.obj
 0003:00002870       $SG11639                   0042e070     Gdt.obj
 0003:00002878       $SG11658                   0042e078     Gdt.obj
 0003:000028a0       $SG11659                   0042e0a0     Gdt.obj
 0003:000028c0       $SG11531                   0042e0c0     hdd.obj
 0003:000028e8       $SG11568                   0042e0e8     hdd.obj
 0003:00002908       $SG11730                   0042e108     hdd.obj
 0003:0000291c       $SG11732                   0042e11c     hdd.obj
 0003:00002934       $SG11746                   0042e134     hdd.obj
 0003:00002950       $SG11747                   0042e150     hdd.obj
 0003:00002964       $SG11748                   0042e164     hdd.obj
 0003:00002978       $SG11749                   0042e178     hdd.obj
 0003:0000298c       $SG11750                   0042e18c     hdd.obj
 0003:000029a0       $SG11751                   0042e1a0     hdd.obj
 0003:000029a8       $SG11754                   0042e1a8     hdd.obj
 0003:000029c4       $SG11757                   0042e1c4     hdd.obj
 0003:000029d0       $SG11758                   0042e1d0     hdd.obj
 0003:000029d8       _szInitThreadPrompt        0042e1d8     init.obj
 0003:000029dc       $SG11450                   0042e1dc     init.obj
 0003:00002a08       $SG11454                   0042e208     init.obj
 0003:00002a50       $SG11455                   0042e250     init.obj
 0003:00002a8c       $SG11466                   0042e28c     init.obj
 0003:00002ab4       $SG11471                   0042e2b4     init.obj
 0003:00002ae4       $SG11505                   0042e2e4     init.obj
 0003:00002b10       $SG11506                   0042e310     init.obj
 0003:00002b2c       $SG11507                   0042e32c     init.obj
 0003:00002b3c       $SG11508                   0042e33c     init.obj
 0003:00002b48       $SG11509                   0042e348     init.obj
 0003:00002b58       $SG11510                   0042e358     init.obj
 0003:00002b68       $SG11511                   0042e368     init.obj
 0003:00002b74       $SG11512                   0042e374     init.obj
 0003:00002b84       $SG11515                   0042e384     init.obj
 0003:00002ba0       $SG11556                   0042e3a0     init.obj
 0003:00002bb8       $SG11557                   0042e3b8     init.obj
 0003:00002bd0       $SG11558                   0042e3d0     init.obj
 0003:00002be8       $SG11559                   0042e3e8     init.obj
 0003:00002c00       $SG11562                   0042e400     init.obj
 0003:00002c18       $SG11564                   0042e418     init.obj
 0003:00002c64       $SG11565                   0042e464     init.obj
 0003:00002ce0       $SG11448                   0042e4e0     int.obj
 0003:00002cec       $SG11453                   0042e4ec     int.obj
 0003:00002d0c       $SG11461                   0042e50c     int.obj
 0003:00002d2c       $SG11469                   0042e52c     int.obj
 0003:00002d44       $SG11477                   0042e544     int.obj
 0003:00002d58       $SG11494                   0042e558     int.obj
 0003:00002d90       $SG11499                   0042e590     int.obj
 0003:00002db0       $SG11500                   0042e5b0     int.obj
 0003:00002dcc       $SG11513                   0042e5cc     int.obj
 0003:00002df0       _tflag                     0042e5f0     int.obj
 0003:00002df4       $SG11547                   0042e5f4     int.obj
 0003:00002e04       $SG11553                   0042e604     int.obj
 0003:00002e14       $SG11585                   0042e614     int.obj
 0003:00002e1c       $SG11656                   0042e61c     int.obj
 0003:00002e28       _privateHandler            0042e628     int.obj
 0003:00002f18       $SG11658                   0042e718     int.obj
 0003:00002f28       $SG11661                   0042e728     int.obj
 0003:00002f30       $SG11664                   0042e730     int.obj
 0003:00002f38       $SG11667                   0042e738     int.obj
 0003:00002f40       $SG11668                   0042e740     int.obj
 0003:00002f48       $SG11671                   0042e748     int.obj
 0003:00002f50       $SG11672                   0042e750     int.obj
 0003:00002f58       $SG11673                   0042e758     int.obj
 0003:00002f7c       $SG11680                   0042e77c     int.obj
 0003:00003120       $SG11442                   0042e920     kbd.obj
 0003:00003134       $SG11444                   0042e934     kbd.obj
 0003:00003148       $SG11610                   0042e948     kbd.obj
 0003:0000314c       $SG11474                   0042e94c     kbddrv.obj
 0003:00003158       _G_nVideoLine              0042e958     kdebug.obj
 0003:0000315c       $SG11453                   0042e95c     kdebug.obj
 0003:0000316c       _strArray                  0042e96c     kdebug.obj
 0003:00003184       $SG11661                   0042e984     kdebug.obj
 0003:0000319c       $SG11716                   0042e99c     kdebug.obj
 0003:000031c0       $SG11721                   0042e9c0     kdebug.obj
 0003:000031ec       $SG11728                   0042e9ec     kdebug.obj
 0003:00003218       $SG11790                   0042ea18     kdebug.obj
 0003:00003238       $SG11792                   0042ea38     kdebug.obj
 0003:0000326c       $SG11793                   0042ea6c     kdebug.obj
 0003:00003298       $SG11795                   0042ea98     kdebug.obj
 0003:000032c4       $SG11801                   0042eac4     kdebug.obj
 0003:000032d4       $SG11803                   0042ead4     kdebug.obj
 0003:000032e4       $SG11808                   0042eae4     kdebug.obj
 0003:000032f8       $SG11809                   0042eaf8     kdebug.obj
 0003:0000330c       $SG11829                   0042eb0c     kdebug.obj
 0003:0000331c       $SG11831                   0042eb1c     kdebug.obj
 0003:0000332c       $SG11832                   0042eb2c     kdebug.obj
 0003:00003350       $SG11833                   0042eb50     kdebug.obj
 0003:00003388       $SG11834                   0042eb88     kdebug.obj
 0003:000033cc       _xstrArray                 0042ebcc     kdebug.obj
 0003:000033e4       $SG11906                   0042ebe4     kdebug.obj
 0003:000033f8       $SG11880                   0042ebf8     kdebug.obj
 0003:00003440       $SG11881                   0042ec40     kdebug.obj
 0003:00003488       $SG11899                   0042ec88     kdebug.obj
 0003:000034a0       $SG11907                   0042eca0     kdebug.obj
 0003:000034b4       $SG11950                   0042ecb4     kdebug.obj
 0003:000034bc       $SG11952                   0042ecbc     kdebug.obj
 0003:000034c4       $SG11965                   0042ecc4     kdebug.obj
 0003:000034cc       $SG11981                   0042eccc     kdebug.obj
 0003:000034e8       $SG12024                   0042ece8     kdebug.obj
 0003:00003518       $SG12045                   0042ed18     kdebug.obj
 0003:0000351c       $SG12048                   0042ed1c     kdebug.obj
 0003:00003520       $SG12051                   0042ed20     kdebug.obj
 0003:00003524       $SG12053                   0042ed24     kdebug.obj
 0003:00003528       $SG12062                   0042ed28     kdebug.obj
 0003:00003538       $SG12065                   0042ed38     kdebug.obj
 0003:00003540       $SG12066                   0042ed40     kdebug.obj
 0003:0000354c       $SG12067                   0042ed4c     kdebug.obj
 0003:00003568       $SG11452                   0042ed68     kmesg.obj
 0003:0000358c       $SG11454                   0042ed8c     kmesg.obj
 0003:000035b4       $SG11461                   0042edb4     kmesg.obj
 0003:000035e4       $SG11483                   0042ede4     kmesg.obj
 0003:00003608       $SG11487                   0042ee08     kmesg.obj
 0003:00003630       $SG11509                   0042ee30     kmesg.obj
 0003:00003658       $SG11667                   0042ee58     kprocess.obj
 0003:00003660       $SG11670                   0042ee60     kprocess.obj
 0003:00003674       $SG11671                   0042ee74     kprocess.obj
 0003:00003684       $SG11672                   0042ee84     kprocess.obj
 0003:00003698       $SG11673                   0042ee98     kprocess.obj
 0003:000036a8       $SG11674                   0042eea8     kprocess.obj
 0003:000036bc       $SG11675                   0042eebc     kprocess.obj
 0003:000036cc       $SG11676                   0042eecc     kprocess.obj
 0003:000036d8       $SG11677                   0042eed8     kprocess.obj
 0003:000036e4       $SG11678                   0042eee4     kprocess.obj
 0003:000036ec       $SG11679                   0042eeec     kprocess.obj
 0003:000036f8       $SG11680                   0042eef8     kprocess.obj
 0003:00003704       $SG11681                   0042ef04     kprocess.obj
 0003:0000370c       $SG11559                   0042ef0c     kprocess.obj
 0003:00003734       $SG11591                   0042ef34     kprocess.obj
 0003:0000373c       $SG11592                   0042ef3c     kprocess.obj
 0003:00003744       $SG11600                   0042ef44     kprocess.obj
 0003:0000374c       $SG11601                   0042ef4c     kprocess.obj
 0003:00003754       $SG11654                   0042ef54     kprocess.obj
 0003:00003764       $SG11655                   0042ef64     kprocess.obj
 0003:000037a4       $SG11660                   0042efa4     kprocess.obj
 0003:000037d8       $SG11661                   0042efd8     kprocess.obj
 0003:00003810       _pUnknownStr               0042f010     kprocess.obj
 0003:00003814       $SG11704                   0042f014     kprocess.obj
 0003:00003820       _thread_state_str          0042f020     kprocess.obj
 0003:00003888       $SG11699                   0042f088     kprocess.obj
 0003:00003890       $SG11706                   0042f090     kprocess.obj
 0003:00003898       $SG11707                   0042f098     kprocess.obj
 0003:000038a0       $SG11725                   0042f0a0     kprocess.obj
 0003:000038b0       $SG11727                   0042f0b0     kprocess.obj
 0003:000038e4       $SG11734                   0042f0e4     kprocess.obj
 0003:0000390c       $SG11751                   0042f10c     kprocess.obj
 0003:00003940       $SG11789                   0042f140     kprocess.obj
 0003:00003984       $SG11845                   0042f184     kprocess.obj
 0003:000039b0       $SG11804                   0042f1b0     kprocess.obj
 0003:000039fc       $SG11847                   0042f1fc     kprocess.obj
 0003:00003a24       $SG11848                   0042f224     kprocess.obj
 0003:00003a2c       $SG11850                   0042f22c     kprocess.obj
 0003:00003a54       $SG11851                   0042f254     kprocess.obj
 0003:00003a58       $SG11856                   0042f258     kprocess.obj
 0003:00003a88       $SG11869                   0042f288     kprocess.obj
 0003:00003a90       $SG11870                   0042f290     kprocess.obj
 0003:00003ab0       $SG11873                   0042f2b0     kprocess.obj
 0003:00003ae0       $SG11875                   0042f2e0     kprocess.obj
 0003:00003b08       $SG11877                   0042f308     kprocess.obj
 0003:00003b38       $SG11886                   0042f338     kprocess.obj
 0003:00003b88       $SG11888                   0042f388     kprocess.obj
 0003:00003bc8       $SG11913                   0042f3c8     kprocess.obj
 0003:00003bf4       $SG11915                   0042f3f4     kprocess.obj
 0003:00003bfc       $SG11967                   0042f3fc     kprocess.obj
 0003:00003c24       $SG11987                   0042f424     kprocess.obj
 0003:00003c3c       $SG11988                   0042f43c     kprocess.obj
 0003:00003c6c       $SG11996                   0042f46c     kprocess.obj
 0003:00003c78       $SG11998                   0042f478     kprocess.obj
 0003:00003ca0       $SG12007                   0042f4a0     kprocess.obj
 0003:00003cac       $SG12009                   0042f4ac     kprocess.obj
 0003:00003cd4       $SG12098                   0042f4d4     kprocess.obj
 0003:00003cec       $SG12116                   0042f4ec     kprocess.obj
 0003:00003d10       $SG12163                   0042f510     kprocess.obj
 0003:00003d34       $SG12167                   0042f534     kprocess.obj
 0003:00003d5c       $SG12169                   0042f55c     kprocess.obj
 0003:00003d80       $SG12195                   0042f580     kprocess.obj
 0003:00003d98       $SG12202                   0042f598     kprocess.obj
 0003:00003dac       $SG12203                   0042f5ac     kprocess.obj
 0003:00003dd0       $SG12204                   0042f5d0     kprocess.obj
 0003:00003df4       $SG12205                   0042f5f4     kprocess.obj
 0003:00003e18       $SG12206                   0042f618     kprocess.obj
 0003:00003e38       $SG12207                   0042f638     kprocess.obj
 0003:00003e68       $SG12208                   0042f668     kprocess.obj
 0003:00003e8c       $SG12216                   0042f68c     kprocess.obj
 0003:00003ea4       $SG12217                   0042f6a4     kprocess.obj
 0003:00003ebc       $SG12218                   0042f6bc     kprocess.obj
 0003:00003eec       $SG12222                   0042f6ec     kprocess.obj
 0003:00003f28       $SG12219                   0042f728     kprocess.obj
 0003:00003f70       $SG12220                   0042f770     kprocess.obj
 0003:00003f88       $SG12221                   0042f788     kprocess.obj
 0003:00003fb8       $SG12223                   0042f7b8     kprocess.obj
 0003:00003fe0       $SG12235                   0042f7e0     kprocess.obj
 0003:00003ff0       $SG12236                   0042f7f0     kprocess.obj
 0003:00003ff4       $SG12237                   0042f7f4     kprocess.obj
 0003:00003ff8       $SG12238                   0042f7f8     kprocess.obj
 0003:00004000       $SG12239                   0042f800     kprocess.obj
 0003:00004004       $SG12240                   0042f804     kprocess.obj
 0003:00004008       $SG12249                   0042f808     kprocess.obj
 0003:00004034       $SG12251                   0042f834     kprocess.obj
 0003:00004064       $SG12264                   0042f864     kprocess.obj
 0003:00004074       $SG12302                   0042f874     kprocess.obj
 0003:00004094       $SG12304                   0042f894     kprocess.obj
 0003:000040cc       $SG12509                   0042f8cc     kprocess.obj
 0003:000040f8       $SG12531                   0042f8f8     kprocess.obj
 0003:00004130       $SG11538                   0042f930     kshell.obj
 0003:00004138       $SG11539                   0042f938     kshell.obj
 0003:0000413c       $SG11540                   0042f93c     kshell.obj
 0003:00004140       $SG11541                   0042f940     kshell.obj
 0003:00004144       _nIns                      0042f944     kshell.obj
 0003:00004148       $SG11429                   0042f948     kshell.obj
 0003:0000414c       $SG11431                   0042f94c     kshell.obj
 0003:00004150       $SG11446                   0042f950     kshell.obj
 0003:00004154       $SG11517                   0042f954     kshell.obj
 0003:00004160       $SG11526                   0042f960     kshell.obj
 0003:00004168       $SG11528                   0042f968     kshell.obj
 0003:0000416c       _dbg_fkey_tbl              0042f96c     kshell.obj
 0003:00004194       $SG11576                   0042f994     kshell.obj
 0003:00004198       $SG11579                   0042f998     kshell.obj
 0003:000041a0       $SG11541                   0042f9a0     kshlcmd.obj
 0003:000041ac       $SG11543                   0042f9ac     kshlcmd.obj
 0003:000041b0       $SG11546                   0042f9b0     kshlcmd.obj
 0003:000041b4       $SG11548                   0042f9b4     kshlcmd.obj
 0003:000041bc       $SG11551                   0042f9bc     kshlcmd.obj
 0003:000041c0       $SG11612                   0042f9c0     kshlcmd.obj
 0003:000041d8       $SG11614                   0042f9d8     kshlcmd.obj
 0003:000041ec       $SG11631                   0042f9ec     kshlcmd.obj
 0003:00004204       $SG11632                   0042fa04     kshlcmd.obj
 0003:00004238       $SG11662                   0042fa38     kshlcmd.obj
 0003:00004250       $SG11665                   0042fa50     kshlcmd.obj
 0003:00004274       $SG11667                   0042fa74     kshlcmd.obj
 0003:0000427c       $SG11668                   0042fa7c     kshlcmd.obj
 0003:000042a8       $SG11673                   0042faa8     kshlcmd.obj
 0003:000042cc       $SG11700                   0042facc     kshlcmd.obj
 0003:000042d0       $SG11707                   0042fad0     kshlcmd.obj
 0003:000042e4       $SG11727                   0042fae4     kshlcmd.obj
 0003:000042fc       $SG11728                   0042fafc     kshlcmd.obj
 0003:00004318       $SG11730                   0042fb18     kshlcmd.obj
 0003:00004328       $SG11731                   0042fb28     kshlcmd.obj
 0003:00004340       $SG11733                   0042fb40     kshlcmd.obj
 0003:00004344       $SG11735                   0042fb44     kshlcmd.obj
 0003:00004368       $SG11737                   0042fb68     kshlcmd.obj
 0003:00004390       _strArray                  0042fb90     kshlcmd.obj
 0003:000043a8       $SG11765                   0042fba8     kshlcmd.obj
 0003:000043c4       $SG11768                   0042fbc4     kshlcmd.obj
 0003:000043d4       $SG11769                   0042fbd4     kshlcmd.obj
 0003:000043ec       $SG11866                   0042fbec     kshlcmd.obj
 0003:00004414       $SG11881                   0042fc14     kshlcmd.obj
 0003:00004448       $SG11886                   0042fc48     kshlcmd.obj
 0003:0000444c       $SG11889                   0042fc4c     kshlcmd.obj
 0003:00004450       $SG11892                   0042fc50     kshlcmd.obj
 0003:00004454       $SG11895                   0042fc54     kshlcmd.obj
 0003:00004458       $SG11896                   0042fc58     kshlcmd.obj
 0003:00004470       $SG11900                   0042fc70     kshlcmd.obj
 0003:00004478       $SG11909                   0042fc78     kshlcmd.obj
 0003:00004488       $SG11922                   0042fc88     kshlcmd.obj
 0003:00004498       $SG11947                   0042fc98     kshlcmd.obj
 0003:000044b4       $SG11948                   0042fcb4     kshlcmd.obj
 0003:000044e8       $SG11980                   0042fce8     kshlcmd.obj
 0003:000044fc       $SG12043                   0042fcfc     kshlcmd.obj
 0003:00004520       $SG12045                   0042fd20     kshlcmd.obj
 0003:00004538       $SG12047                   0042fd38     kshlcmd.obj
 0003:00004554       $SG12063                   0042fd54     kshlcmd.obj
 0003:00004574       $SG12065                   0042fd74     kshlcmd.obj
 0003:0000457c       $SG12079                   0042fd7c     kshlcmd.obj
 0003:00004598       $SG12084                   0042fd98     kshlcmd.obj
 0003:000045c4       $SG12104                   0042fdc4     kshlcmd.obj
 0003:00004600       $SG12105                   0042fe00     kshlcmd.obj
 0003:00004620       $SG12106                   0042fe20     kshlcmd.obj
 0003:00004644       $SG12125                   0042fe44     kshlcmd.obj
 0003:00004664       $SG12126                   0042fe64     kshlcmd.obj
 0003:0000467c       $SG12147                   0042fe7c     kshlcmd.obj
 0003:0000469c       $SG12150                   0042fe9c     kshlcmd.obj
 0003:000046ac       $SG12167                   0042feac     kshlcmd.obj
 0003:000046c4       $SG12169                   0042fec4     kshlcmd.obj
 0003:000046ec       $SG12171                   0042feec     kshlcmd.obj
 0003:00004710       $SG12186                   0042ff10     kshlcmd.obj
 0003:0000473c       $SG12188                   0042ff3c     kshlcmd.obj
 0003:00004754       $SG12191                   0042ff54     kshlcmd.obj
 0003:00004768       $SG12231                   0042ff68     kshlcmd.obj
 0003:0000478c       $SG12237                   0042ff8c     kshlcmd.obj
 0003:000047a8       $SG12232                   0042ffa8     kshlcmd.obj
 0003:000047ec       $SG12233                   0042ffec     kshlcmd.obj
 0003:0000481c       $SG12235                   0043001c     kshlcmd.obj
 0003:00004834       $SG12248                   00430034     kshlcmd.obj
 0003:00004848       $SG12238                   00430048     kshlcmd.obj
 0003:00004890       $SG12239                   00430090     kshlcmd.obj
 0003:00004898       $SG12263                   00430098     kshlcmd.obj
 0003:000048a8       $SG12265                   004300a8     kshlcmd.obj
 0003:000048c0       $SG12284                   004300c0     kshlcmd.obj
 0003:000048dc       $SG12311                   004300dc     kshlcmd.obj
 0003:000048f0       $SG12313                   004300f0     kshlcmd.obj
 0003:0000490c       $SG12326                   0043010c     kshlcmd.obj
 0003:00004924       $SG12335                   00430124     kshlcmd.obj
 0003:00004934       $SG12344                   00430134     kshlcmd.obj
 0003:00004948       $SG12362                   00430148     kshlcmd.obj
 0003:00004960       $SG12364                   00430160     kshlcmd.obj
 0003:00004978       $SG12373                   00430178     kshlcmd.obj
 0003:0000499c       $SG12397                   0043019c     kshlcmd.obj
 0003:000049b0       $SG12399                   004301b0     kshlcmd.obj
 0003:000049c8       $SG12413                   004301c8     kshlcmd.obj
 0003:000049ec       $SG12414                   004301ec     kshlcmd.obj
 0003:00004a08       $SG12415                   00430208     kshlcmd.obj
 0003:00004a1c       $SG12416                   0043021c     kshlcmd.obj
 0003:00004a34       $SG12417                   00430234     kshlcmd.obj
 0003:00004a48       $SG12418                   00430248     kshlcmd.obj
 0003:00004a60       $SG12419                   00430260     kshlcmd.obj
 0003:00004a74       $SG12420                   00430274     kshlcmd.obj
 0003:00004a84       $SG12421                   00430284     kshlcmd.obj
 0003:00004a94       $SG12422                   00430294     kshlcmd.obj
 0003:00004aa4       $SG12425                   004302a4     kshlcmd.obj
 0003:00004aa8       $SG12428                   004302a8     kshlcmd.obj
 0003:00004ab0       $SG12431                   004302b0     kshlcmd.obj
 0003:00004ab8       $SG12434                   004302b8     kshlcmd.obj
 0003:00004ac0       $SG12437                   004302c0     kshlcmd.obj
 0003:00004ac8       $SG12440                   004302c8     kshlcmd.obj
 0003:00004acc       $SG12443                   004302cc     kshlcmd.obj
 0003:00004ad4       $SG12446                   004302d4     kshlcmd.obj
 0003:00004adc       $SG12449                   004302dc     kshlcmd.obj
 0003:00004ae4       $SG12450                   004302e4     kshlcmd.obj
 0003:00004b00       $SG12452                   00430300     kshlcmd.obj
 0003:00004b18       $SG12581                   00430318     kshlcmd.obj
 0003:00004b24       $SG11421                   00430324     ksignal.obj
 0003:00004b30       $SG11422                   00430330     ksignal.obj
 0003:00004b3c       $SG11423                   0043033c     ksignal.obj
 0003:00004b48       $SG11424                   00430348     ksignal.obj
 0003:00004b54       $SG11425                   00430354     ksignal.obj
 0003:00004b60       $SG11426                   00430360     ksignal.obj
 0003:00004b6c       _sig_str_tbl               0043036c     ksignal.obj
 0003:00004ba4       $SG11442                   004303a4     ksignal.obj
 0003:00004bb4       $SG11459                   004303b4     ksignal.obj
 0003:00004be8       $SG11485                   004303e8     ksignal.obj
 0003:00004c20       $SG11470                   00430420     ksyscall.obj
 0003:00004c4c       $SG11696                   0043044c     ksyscall.obj
 0003:00004c74       $SG11769                   00430474     ksyscall.obj
 0003:00004c98       $SG11771                   00430498     ksyscall.obj
 0003:00004cb4       $SG11857                   004304b4     ksyscall.obj
 0003:00004cc8       $SG11994                   004304c8     ksyscall.obj
 0003:00004ce0       $SG11447                   004304e0     Ldr.obj
 0003:00004d08       $SG11449                   00430508     Ldr.obj
 0003:00004d20       $SG11501                   00430520     Ldr.obj
 0003:00004d38       $SG11572                   00430538     Ldr.obj
 0003:00004d58       $SG11574                   00430558     Ldr.obj
 0003:00004d78       $SG11576                   00430578     Ldr.obj
 0003:00004d9c       $SG11580                   0043059c     Ldr.obj
 0003:00004dc0       $SG11582                   004305c0     Ldr.obj
 0003:00004de0       $SG11586                   004305e0     Ldr.obj
 0003:00004e1c       $SG11588                   0043061c     Ldr.obj
 0003:00004e48       $SG11590                   00430648     Ldr.obj
 0003:00004e70       _wDefaultBit               00430670     Lucifer.obj
 0003:00004e74       $SG11492                   00430674     Lucifer.obj
 0003:00004e78       $SG11495                   00430678     Lucifer.obj
 0003:00004e7c       $SG11497                   0043067c     Lucifer.obj
 0003:00004e80       $SG11499                   00430680     Lucifer.obj
 0003:00004e84       $SG11501                   00430684     Lucifer.obj
 0003:00004e88       $SG11508                   00430688     Lucifer.obj
 0003:00004e8c       $SG11538                   0043068c     Lucifer.obj
 0003:00004e94       $SG11541                   00430694     Lucifer.obj
 0003:00004e98       $SG11544                   00430698     Lucifer.obj
 0003:00004ea4       $SG11546                   004306a4     Lucifer.obj
 0003:00004eb0       $SG11548                   004306b0     Lucifer.obj
 0003:00004ebc       $SG11550                   004306bc     Lucifer.obj
 0003:00004ec8       $SG11552                   004306c8     Lucifer.obj
 0003:00004ed4       $SG11554                   004306d4     Lucifer.obj
 0003:00004ee0       $SG11556                   004306e0     Lucifer.obj
 0003:00004ee4       $SG11559                   004306e4     Lucifer.obj
 0003:00004ef0       $SG11561                   004306f0     Lucifer.obj
 0003:00004efc       $SG11563                   004306fc     Lucifer.obj
 0003:00004f08       $SG11565                   00430708     Lucifer.obj
 0003:00004f14       $SG11567                   00430714     Lucifer.obj
 0003:00004f20       $SG11569                   00430720     Lucifer.obj
 0003:00004f2c       $SG11571                   0043072c     Lucifer.obj
 0003:00004f30       $SG11572                   00430730     Lucifer.obj
 0003:00004f34       $SG11573                   00430734     Lucifer.obj
 0003:00004f3c       $SG11976                   0043073c     Lucifer.obj
 0003:00004f40       $SG11977                   00430740     Lucifer.obj
 0003:00004f4c       $SG11980                   0043074c     Lucifer.obj
 0003:00004f58       $SG11982                   00430758     Lucifer.obj
 0003:00004f64       $SG11984                   00430764     Lucifer.obj
 0003:00004f70       $SG11986                   00430770     Lucifer.obj
 0003:00004f7c       $SG11988                   0043077c     Lucifer.obj
 0003:00004f88       $SG11990                   00430788     Lucifer.obj
 0003:00004f94       $SG11992                   00430794     Lucifer.obj
 0003:00004f98       $SG11995                   00430798     Lucifer.obj
 0003:00004fa4       $SG11997                   004307a4     Lucifer.obj
 0003:00004fb0       $SG11999                   004307b0     Lucifer.obj
 0003:00004fbc       $SG12001                   004307bc     Lucifer.obj
 0003:00004fc8       $SG12003                   004307c8     Lucifer.obj
 0003:00004fd4       $SG12005                   004307d4     Lucifer.obj
 0003:00004fe0       $SG12007                   004307e0     Lucifer.obj
 0003:00004fe8       $SG11480                   004307e8     Malloc.obj
 0003:00005028       $SG11498                   00430828     Malloc.obj
 0003:00005068       $SG11500                   00430868     Malloc.obj
 0003:00005098       $SG11529                   00430898     Malloc.obj
 0003:000050d4       $SG11533                   004308d4     Malloc.obj
 0003:00005110       $SG11576                   00430910     Malloc.obj
 0003:0000513c       $SG11579                   0043093c     Malloc.obj
 0003:00005168       $SG11583                   00430968     Malloc.obj
 0003:00005194       $SG11653                   00430994     Malloc.obj
 0003:000051c0       $SG11611                   004309c0     Malloc.obj
 0003:00005208       $SG11616                   00430a08     Malloc.obj
 0003:0000524c       $SG11657                   00430a4c     Malloc.obj
 0003:00005288       $SG11658                   00430a88     Malloc.obj
 0003:000052c0       $SG11666                   00430ac0     Malloc.obj
 0003:000052dc       $SG11667                   00430adc     Malloc.obj
 0003:00005308       $SG11671                   00430b08     Malloc.obj
 0003:00005328       $SG11714                   00430b28     Malloc.obj
 0003:00005348       $SG11716                   00430b48     Malloc.obj
 0003:00005374       $SG11718                   00430b74     Malloc.obj
 0003:00005390       $SG11740                   00430b90     Malloc.obj
 0003:000053c0       $SG11767                   00430bc0     Malloc.obj
 0003:000053dc       $SG11768                   00430bdc     Malloc.obj
 0003:000053e4       $SG11770                   00430be4     Malloc.obj
 0003:000053fc       $SG11772                   00430bfc     Malloc.obj
 0003:00005404       $SG11776                   00430c04     Malloc.obj
 0003:00005424       $SG11778                   00430c24     Malloc.obj
 0003:00005448       $SG11779                   00430c48     Malloc.obj
 0003:00005490       $SG11470                   00430c90     memory.obj
 0003:000054b4       $SG11484                   00430cb4     memory.obj
 0003:000054dc       $SG11512                   00430cdc     memory.obj
 0003:00005508       $SG11569                   00430d08     memory.obj
 0003:00005544       $SG11570                   00430d44     memory.obj
 0003:00005570       $SG11602                   00430d70     memory.obj
 0003:0000558c       $SG11603                   00430d8c     memory.obj
 0003:000055b0       $SG11424                   00430db0     module.obj
 0003:000055e4       $SG11459                   00430de4     module.obj
 0003:000055f4       $SG11542                   00430df4     module.obj
 0003:00005620       $SG11545                   00430e20     module.obj
 0003:00005654       $SG11547                   00430e54     module.obj
 0003:00005690       $SG11605                   00430e90     module.obj
 0003:000056d4       $SG11607                   00430ed4     module.obj
 0003:00005708       $SG11608                   00430f08     module.obj
 0003:0000572c       $SG11652                   00430f2c     Myasm.obj
 0003:00005730       $SG11653                   00430f30     Myasm.obj
 0003:00005734       $SG11654                   00430f34     Myasm.obj
 0003:00005738       $SG11655                   00430f38     Myasm.obj
 0003:0000573c       _nNumberBase               00430f3c     Myasm.obj
 0003:00005740       _aliasOp                   00430f40     Myasm.obj
 0003:00005758       $SG11706                   00430f58     Myasm.obj
 0003:00005778       $SG11709                   00430f78     Myasm.obj
 0003:00005780       $SG11712                   00430f80     Myasm.obj
 0003:00005788       $SG11715                   00430f88     Myasm.obj
 0003:00005790       $SG11718                   00430f90     Myasm.obj
 0003:00005794       $SG11722                   00430f94     Myasm.obj
 0003:00005798       $SG11726                   00430f98     Myasm.obj
 0003:000057b0       $SG11728                   00430fb0     Myasm.obj
 0003:000057c4       $SG11730                   00430fc4     Myasm.obj
 0003:000057dc       $SG11746                   00430fdc     Myasm.obj
 0003:0000580c       $SG11806                   0043100c     Myasm.obj
 0003:00005824       $SG11807                   00431024     Myasm.obj
 0003:00005838       $SG11957                   00431038     Myasm.obj
 0003:0000584c       $SG11977                   0043104c     Myasm.obj
 0003:00005858       $SG11980                   00431058     Myasm.obj
 0003:0000586c       $SG11981                   0043106c     Myasm.obj
 0003:00005874       $SG12152                   00431074     Myasm.obj
 0003:00005880       $SG12153                   00431080     Myasm.obj
 0003:00005884       $SG12172                   00431084     Myasm.obj
 0003:00005888       $SG12173                   00431088     Myasm.obj
 0003:00005894       $SG12192                   00431094     Myasm.obj
 0003:00005898       $SG12193                   00431098     Myasm.obj
 0003:000058a4       $SG12248                   004310a4     Myasm.obj
 0003:000058d0       $SG12256                   004310d0     Myasm.obj
 0003:000058d4       $SG12259                   004310d4     Myasm.obj
 0003:000058dc       $SG12262                   004310dc     Myasm.obj
 0003:000058e0       $SG12265                   004310e0     Myasm.obj
 0003:000058e4       $SG12266                   004310e4     Myasm.obj
 0003:000058ec       $SG12267                   004310ec     Myasm.obj
 0003:00005904       $SG12285                   00431104     Myasm.obj
 0003:0000591c       $SG12287                   0043111c     Myasm.obj
 0003:00005934       $SG12640                   00431134     Myasm.obj
 0003:00005938       $SG12642                   00431138     Myasm.obj
 0003:0000593c       $SG12646                   0043113c     Myasm.obj
 0003:00005940       $SG12691                   00431140     Myasm.obj
 0003:00005948       $SG12694                   00431148     Myasm.obj
 0003:00005954       $SG12695                   00431154     Myasm.obj
 0003:00005960       $SG12706                   00431160     Myasm.obj
 0003:00005978       $SG12707                   00431178     Myasm.obj
 0003:00005980       $SG12708                   00431180     Myasm.obj
 0003:00005984       $SG12777                   00431184     Myasm.obj
 0003:00005988       _warpup                    00431188     Myasm.obj
 0003:000059e4       $SG12773                   004311e4     Myasm.obj
 0003:000059fc       $SG12786                   004311fc     Myasm.obj
 0003:00005a18       $SG12791                   00431218     Myasm.obj
 0003:00005a2c       $SG12792                   0043122c     Myasm.obj
 0003:00005a4c       $SG11419                   0043124c     mydbg2.obj
 0003:00005a54       $SG11420                   00431254     mydbg2.obj
 0003:00005a5c       $SG11472                   0043125c     mydbg2.obj
 0003:00005a84       $SG11474                   00431284     mydbg2.obj
 0003:00005ab0       $SG11476                   004312b0     mydbg2.obj
 0003:00005adc       $SG11478                   004312dc     mydbg2.obj
 0003:00005b10       $SG11479                   00431310     mydbg2.obj
 0003:00005b30       $SG11421                   00431330     nic.obj
 0003:00005b48       $SG11424                   00431348     nic.obj
 0003:00005b70       $SG11425                   00431370     nic.obj
 0003:00005ba8       _dwKernelMappingFlag       004313a8     paging.obj
 0003:00005bac       $SG11498                   004313ac     paging.obj
 0003:00005bdc       $SG11551                   004313dc     paging.obj
 0003:00005c14       $SG11553                   00431414     paging.obj
 0003:00005c50       $SG11618                   00431450     paging.obj
 0003:00005c78       $SG11656                   00431478     paging.obj
 0003:00005c80       $SG11659                   00431480     paging.obj
 0003:00005cb0       $SG11664                   004314b0     paging.obj
 0003:00005cb8       $SG11744                   004314b8     paging.obj
 0003:00005cdc       $SG11746                   004314dc     paging.obj
 0003:00005d08       $SG11747                   00431508     paging.obj
 0003:00005d20       $SG11754                   00431520     paging.obj
 0003:00005d38       $SG11816                   00431538     paging.obj
 0003:00005d68       $SG11842                   00431568     paging.obj
 0003:00005d94       $SG11899                   00431594     paging.obj
 0003:00005dbc       $SG11938                   004315bc     paging.obj
 0003:00005dec       $SG11940                   004315ec     paging.obj
 0003:00005e18       $SG11942                   00431618     paging.obj
 0003:00005e48       $SG12020                   00431648     paging.obj
 0003:00005e50       $SG12034                   00431650     paging.obj
 0003:00005e58       $SG12090                   00431658     paging.obj
 0003:00005e68       $SG12094                   00431668     paging.obj
 0003:00005e90       $SG12096                   00431690     paging.obj
 0003:00005ee0       $SG12101                   004316e0     paging.obj
 0003:00005f38       $SG11422                   00431738     pci.obj
 0003:00005f48       $SG11423                   00431748     pci.obj
 0003:00005f58       $SG11424                   00431758     pci.obj
 0003:00005f6c       $SG11425                   0043176c     pci.obj
 0003:00005f7c       $SG11426                   0043177c     pci.obj
 0003:00005f8c       $SG11427                   0043178c     pci.obj
 0003:00005f9c       $SG11428                   0043179c     pci.obj
 0003:00005fac       $SG11429                   004317ac     pci.obj
 0003:00005fbc       $SG11430                   004317bc     pci.obj
 0003:00005fcc       $SG11431                   004317cc     pci.obj
 0003:00005fdc       $SG11432                   004317dc     pci.obj
 0003:00005fec       $SG11433                   004317ec     pci.obj
 0003:00005ffc       $SG11434                   004317fc     pci.obj
 0003:00006010       $SG11435                   00431810     pci.obj
 0003:00006020       $SG11436                   00431820     pci.obj
 0003:00006030       _pci_name                  00431830     pci.obj
 0003:000060a0       $SG11440                   004318a0     pci.obj
 0003:000060c0       $SG11441                   004318c0     pci.obj
 0003:000060e0       $SG11442                   004318e0     pci.obj
 0003:00006100       $SG11443                   00431900     pci.obj
 0003:00006120       $SG11444                   00431920     pci.obj
 0003:00006140       $SG11445                   00431940     pci.obj
 0003:00006160       $SG11446                   00431960     pci.obj
 0003:00006180       $SG11447                   00431980     pci.obj
 0003:000061a0       $SG11448                   004319a0     pci.obj
 0003:000061c0       $SG11449                   004319c0     pci.obj
 0003:000061e0       $SG11450                   004319e0     pci.obj
 0003:00006200       $SG11451                   00431a00     pci.obj
 0003:00006220       $SG11452                   00431a20     pci.obj
 0003:00006240       $SG11453                   00431a40     pci.obj
 0003:00006260       $SG11454                   00431a60     pci.obj
 0003:00006280       $SG11455                   00431a80     pci.obj
 0003:000062a0       $SG11456                   00431aa0     pci.obj
 0003:000062c0       $SG11457                   00431ac0     pci.obj
 0003:000062e0       $SG11458                   00431ae0     pci.obj
 0003:00006300       $SG11459                   00431b00     pci.obj
 0003:00006320       $SG11460                   00431b20     pci.obj
 0003:00006340       $SG11461                   00431b40     pci.obj
 0003:00006360       $SG11462                   00431b60     pci.obj
 0003:00006380       $SG11463                   00431b80     pci.obj
 0003:000063a0       $SG11464                   00431ba0     pci.obj
 0003:000063c0       $SG11465                   00431bc0     pci.obj
 0003:000063e0       $SG11466                   00431be0     pci.obj
 0003:00006400       $SG11467                   00431c00     pci.obj
 0003:00006420       $SG11468                   00431c20     pci.obj
 0003:00006440       $SG11505                   00431c40     pci.obj
 0003:00006460       $SG11506                   00431c60     pci.obj
 0003:00006468       $SG11509                   00431c68     pci.obj
 0003:0000646c       $SG11510                   00431c6c     pci.obj
 0003:00006478       $SG11511                   00431c78     pci.obj
 0003:00006490       $SG11549                   00431c90     schedule.obj
 0003:000064b8       $SG11561                   00431cb8     schedule.obj
 0003:000064dc       _kt_flag                   00431cdc     schedule.obj
 0003:000064e0       $SG11637                   00431ce0     schedule.obj
 0003:000064f8       $SG11649                   00431cf8     schedule.obj
 0003:00006510       $SG11458                   00431d10     semaph.obj
 0003:0000651c       $SG11434                   00431d1c     serial.obj
 0003:0000654c       $SG11555                   00431d4c     serial.obj
 0003:00006840       $SG11415                   00432040     Symtbl.obj
 0003:00006844       $SG11416                   00432044     Symtbl.obj
 0003:00006848       $SG11417                   00432048     Symtbl.obj
 0003:0000684c       $SG11418                   0043204c     Symtbl.obj
 0003:00006850       $SG11419                   00432050     Symtbl.obj
 0003:00006854       $SG11420                   00432054     Symtbl.obj
 0003:00006858       $SG11421                   00432058     Symtbl.obj
 0003:0000685c       $SG11422                   0043205c     Symtbl.obj
 0003:00006860       $SG11423                   00432060     Symtbl.obj
 0003:00006864       $SG11424                   00432064     Symtbl.obj
 0003:00006868       $SG11425                   00432068     Symtbl.obj
 0003:0000686c       $SG11426                   0043206c     Symtbl.obj
 0003:00006870       $SG11427                   00432070     Symtbl.obj
 0003:00006874       $SG11428                   00432074     Symtbl.obj
 0003:00006878       $SG11429                   00432078     Symtbl.obj
 0003:0000687c       $SG11430                   0043207c     Symtbl.obj
 0003:00006880       $SG11431                   00432080     Symtbl.obj
 0003:00006884       $SG11432                   00432084     Symtbl.obj
 0003:00006888       $SG11433                   00432088     Symtbl.obj
 0003:0000688c       $SG11434                   0043208c     Symtbl.obj
 0003:00006890       $SG11435                   00432090     Symtbl.obj
 0003:00006894       $SG11436                   00432094     Symtbl.obj
 0003:00006898       $SG11437                   00432098     Symtbl.obj
 0003:0000689c       $SG11438                   0043209c     Symtbl.obj
 0003:000068a0       $SG11439                   004320a0     Symtbl.obj
 0003:000068a4       $SG11440                   004320a4     Symtbl.obj
 0003:000068a8       $SG11441                   004320a8     Symtbl.obj
 0003:000068ac       $SG11442                   004320ac     Symtbl.obj
 0003:000068b0       $SG11443                   004320b0     Symtbl.obj
 0003:000068b4       $SG11444                   004320b4     Symtbl.obj
 0003:000068b8       $SG11445                   004320b8     Symtbl.obj
 0003:000068bc       $SG11446                   004320bc     Symtbl.obj
 0003:000068c0       $SG11447                   004320c0     Symtbl.obj
 0003:000068c4       $SG11448                   004320c4     Symtbl.obj
 0003:000068c8       $SG11449                   004320c8     Symtbl.obj
 0003:000068cc       $SG11450                   004320cc     Symtbl.obj
 0003:000068d0       $SG11451                   004320d0     Symtbl.obj
 0003:000068d4       $SG11452                   004320d4     Symtbl.obj
 0003:000068d8       $SG11453                   004320d8     Symtbl.obj
 0003:000068dc       $SG11454                   004320dc     Symtbl.obj
 0003:000068e0       $SG11455                   004320e0     Symtbl.obj
 0003:000068e4       $SG11456                   004320e4     Symtbl.obj
 0003:000068e8       $SG11457                   004320e8     Symtbl.obj
 0003:000068ec       $SG11458                   004320ec     Symtbl.obj
 0003:000068f0       $SG11459                   004320f0     Symtbl.obj
 0003:000068f4       $SG11460                   004320f4     Symtbl.obj
 0003:000068f8       $SG11461                   004320f8     Symtbl.obj
 0003:000068fc       $SG11462                   004320fc     Symtbl.obj
 0003:00006900       $SG11463                   00432100     Symtbl.obj
 0003:00006904       $SG11464                   00432104     Symtbl.obj
 0003:00006908       $SG11465                   00432108     Symtbl.obj
 0003:0000690c       $SG11466                   0043210c     Symtbl.obj
 0003:00006910       $SG11467                   00432110     Symtbl.obj
 0003:00006914       $SG11468                   00432114     Symtbl.obj
 0003:00006918       $SG11469                   00432118     Symtbl.obj
 0003:0000691c       $SG11470                   0043211c     Symtbl.obj
 0003:00006920       $SG11471                   00432120     Symtbl.obj
 0003:00006924       $SG11472                   00432124     Symtbl.obj
 0003:00006928       $SG11473                   00432128     Symtbl.obj
 0003:0000692c       $SG11474                   0043212c     Symtbl.obj
 0003:00006930       $SG11475                   00432130     Symtbl.obj
 0003:00006934       $SG11476                   00432134     Symtbl.obj
 0003:00006938       $SG11436                   00432138     tss.obj
 0003:0000693c       $SG11462                   0043213c     tss.obj
 0003:00006968       $SG11520                   00432168     tss.obj
 0003:0000696c       $SG11521                   0043216c     tss.obj
 0003:00006970       $SG11524                   00432170     tss.obj
 0003:00006974       $SG11525                   00432174     tss.obj
 0003:00006978       $SG11528                   00432178     tss.obj
 0003:0000697c       $SG11529                   0043217c     tss.obj
 0003:00006980       $SG11532                   00432180     tss.obj
 0003:00006984       $SG11533                   00432184     tss.obj
 0003:00006988       $SG11536                   00432188     tss.obj
 0003:0000698c       $SG11537                   0043218c     tss.obj
 0003:00006990       $SG11540                   00432190     tss.obj
 0003:00006994       $SG11541                   00432194     tss.obj
 0003:00006998       $SG11544                   00432198     tss.obj
 0003:0000699c       $SG11545                   0043219c     tss.obj
 0003:000069a0       $SG11548                   004321a0     tss.obj
 0003:000069a4       $SG11549                   004321a4     tss.obj
 0003:000069a8       $SG11552                   004321a8     tss.obj
 0003:000069ac       $SG11553                   004321ac     tss.obj
 0003:000069b0       $SG11556                   004321b0     tss.obj
 0003:000069b4       $SG11557                   004321b4     tss.obj
 0003:000069b8       $SG11560                   004321b8     tss.obj
 0003:000069bc       $SG11561                   004321bc     tss.obj
 0003:000069c0       $SG11564                   004321c0     tss.obj
 0003:000069c4       $SG11565                   004321c4     tss.obj
 0003:000069c8       $SG11568                   004321c8     tss.obj
 0003:000069cc       $SG11569                   004321cc     tss.obj
 0003:000069d0       $SG11572                   004321d0     tss.obj
 0003:000069d8       $SG11573                   004321d8     tss.obj
 0003:000069e0       $SG11576                   004321e0     tss.obj
 0003:000069e8       $SG11577                   004321e8     tss.obj
 0003:000069f0       $SG11580                   004321f0     tss.obj
 0003:000069f4       $SG11581                   004321f4     tss.obj
 0003:000069f8       $SG11582                   004321f8     tss.obj
 0003:00006a04       $SG11602                   00432204     tss.obj
 0003:00006a18       $SG11603                   00432218     tss.obj
 0003:00006a50       $SG11604                   00432250     tss.obj
 0003:00006a80       $SG11605                   00432280     tss.obj
 0003:00006ab8       $SG11606                   004322b8     tss.obj
 0003:00006ad8       $SG11607                   004322d8     tss.obj
 0003:00006b0c       $SG11608                   0043230c     tss.obj
 0003:00006b10       $SG11451                   00432310     tty.obj
 0003:00006b14       $SG11424                   00432314     v86.obj
 0003:00006b1c       $SG11425                   0043231c     v86.obj
 0003:00006b24       $SG11426                   00432324     v86.obj
 0003:00006b2c       $SG11427                   0043232c     v86.obj
 0003:00006b34       $SG11438                   00432334     v86.obj
 0003:00006b5c       $SG11440                   0043235c     v86.obj
 0003:00006b88       $SG11441                   00432388     v86.obj
 0003:00006ba4       $SG11444                   004323a4     v86.obj
 0003:00006bb8       $SG11445                   004323b8     v86.obj
 0003:00006bbc       $SG11468                   004323bc     v86.obj
 0003:00006bc4       $SG11470                   004323c4     v86.obj
 0003:00006bf0       $SG11472                   004323f0     v86.obj
 0003:00006bf8       $SG11473                   004323f8     v86.obj
 0003:00006c00       $SG11474                   00432400     v86.obj
 0003:00006c14       $SG11476                   00432414     v86.obj
 0003:00006c30       $SG11576                   00432430     v86.obj
 0003:00006c58       $SG11440                   00432458     vconsole.obj
 0003:00006c7c       $SG11442                   0043247c     vconsole.obj
 0003:00006c9c       $SG11525                   0043249c     vconsole.obj
 0003:00006cc4       $SG11531                   004324c4     vconsole.obj
 0003:00006cec       $SG11532                   004324ec     vconsole.obj
 0003:00006d18       $SG11610                   00432518     vesa.obj
 0003:00006d24       $SG11612                   00432524     vesa.obj
 0003:00006d30       $SG11614                   00432530     vesa.obj
 0003:00006d3c       $SG11464                   0043253c     vesa.obj
 0003:00006d40       $SG11465                   00432540     vesa.obj
 0003:00006d44       $SG11468                   00432544     vesa.obj
 0003:00006d4c       $SG11469                   0043254c     vesa.obj
 0003:00006d54       $SG11478                   00432554     vesa.obj
 0003:00006d70       $SG11479                   00432570     vesa.obj
 0003:00006d84       $SG11480                   00432584     vesa.obj
 0003:00006d98       $SG11481                   00432598     vesa.obj
 0003:00006dc0       $SG11484                   004325c0     vesa.obj
 0003:00006dcc       $SG11485                   004325cc     vesa.obj
 0003:00006dd0       $SG11493                   004325d0     vesa.obj
 0003:00006dec       $SG11598                   004325ec     vesa.obj
 0003:00006e18       $SG11514                   00432618     vesa.obj
 0003:00006e60       $SG11604                   00432660     vesa.obj
 0003:00006e88       _pGuiStartFuncName         00432688     vesa.obj
 0003:00006e8c       _pGuiThreadName            0043268c     vesa.obj
 0003:00006e90       $SG11619                   00432690     vesa.obj
 0003:00006eac       $SG11621                   004326ac     vesa.obj
 0003:00006ec4       $SG11637                   004326c4     vesa.obj
 0003:00006ee4       $SG11638                   004326e4     vesa.obj
 0003:00006eec       $SG11640                   004326ec     vesa.obj
 0003:00006f0c       $SG11643                   0043270c     vesa.obj
 0003:00006f28       $SG11645                   00432728     vesa.obj
 0003:00006f48       $SG11648                   00432748     vesa.obj
 0003:00006f6c       $SG11650                   0043276c     vesa.obj
 0003:00006f88       $SG11653                   00432788     vesa.obj
 0003:00006fa8       $SG11654                   004327a8     vesa.obj
 0003:000073b8       _jc                        00432bb8     bell_fs:jcommand.obj
 0003:00007b60       _G_pSysFD                  00433360     bell_fs:file.obj
 0003:00007ee8       _fat32_dbs                 004336e8     bell_fs:fat32.obj
 0003:00008540       _ucb                       00433d40     3c905b.obj
 0003:00008558       _pci_3c905b                00433d58     3c905b.obj
 0003:0000859c       _nTraceRepeat              00433d9c     bellona2.obj
 0003:000085a0       ?dwESP@?9??bellona2_main@@9@9 00433da0     bellona2.obj
 0003:000085a4       ?dwEIP@?9??bellona2_main@@9@9 00433da4     bellona2.obj
 0003:000085a8       _chardev                   00433da8     chardev.obj
 0003:000087b8       _k                         00433fb8     chardev.obj
 0003:000087cc       $SG11697                   00433fcc     Codetbl.obj
 0003:000087d0       _pSysEvent                 00433fd0     event.obj
 0003:000087d4       _sys_event                 00433fd4     event.obj
 0003:000087e0       _pFddMotorTimeout          00433fe0     fdd.obj
 0003:000087e4       _fdd_motor_flag            00433fe4     fdd.obj
 0003:000087e8       _fdd_test_buff             00433fe8     fdd.obj
 0003:0000abe8       ?pThread@?1??simulate_call@@9@9 004363e8     fork.obj
 0003:0000abec       ?dw_user_thread_entry@?1??simulate_call@@9@9 004363ec     fork.obj
 0003:0000abf0       ?dw_real_thread_entry@?1??simulate_call@@9@9 004363f0     fork.obj
 0003:0000abf8       _exec_new_cs               004363f8     fork.obj
 0003:0000ac38       _G_ide_geo                 00436438     hdd.obj
 0003:0000b510       _pInitThread               00436d10     init.obj
 0003:0000b514       _ifunc                     00436d14     init.obj
 0003:0000b518       _init_proc_uarea           00436d18     init.obj
 0003:0000b7b8       ?addr@?1??jmp_init_task@@9@9 00436fb8     init.obj
 0003:0000b7c0       _g_kp                      00436fc0     init.obj
 0003:0000b7c8       _user_def_int              00436fc8     int.obj
 0003:0000b808       _clk_prev                  00437008     int.obj
 0003:0000b810       _nClkCounter               00437010     int.obj
 0003:0000b814       _G_dwCounterPerSec         00437014     int.obj
 0003:0000b818       ?dwESP@?1??timer_handler@@9@9 00437018     int.obj
 0003:0000b81c       ?pV@?2??timer_handler@@9@9 0043701c     int.obj
 0003:0000b820       _nCtrlKey                  00437020     kbd.obj
 0003:0000b824       _nPrefix                   00437024     kbd.obj
 0003:0000b828       ?byCode@?1??kbd_handler@@9@9 00437028     kbd.obj
 0003:0000b830       __strOffset                00437030     kdebug.obj
 0003:0000b850       __strIP                    00437050     kdebug.obj
 0003:0000b85c       __strOpCode                0043705c     kdebug.obj
 0003:0000b87c       __strSize                  0043707c     kdebug.obj
 0003:0000b888       __strOperand               00437088     kdebug.obj
 0003:0000b8ec       __xstrIP                   004370ec     kdebug.obj
 0003:0000b8f8       __strDump                  004370f8     kdebug.obj
 0003:0000b938       __xstrOffset               00437138     kdebug.obj
 0003:0000b958       __xstrOpCode               00437158     kdebug.obj
 0003:0000b978       __xstrOperand              00437178     kdebug.obj
 0003:0000b9dc       __xstrSize                 004371dc     kdebug.obj
 0003:0000b9e8       __xstrDump                 004371e8     kdebug.obj
 0003:0000ba28       _nTotalDbgKey              00437228     kdebug.obj
 0003:0000ba2c       _nKI                       0043722c     kdebug.obj
 0003:0000ba30       _nKO                       00437230     kdebug.obj
 0003:0000ba34       _nDebuggerActive           00437234     kdebug.obj
 0003:0000ba38       _kdbg_keybuff              00437238     kdebug.obj
 0003:0000ba88       _dwDebugeeTID              00437288     kdebug.obj
 0003:0000ba8c       ?dwOrgCR3@?1??get_dword_in_other_context@@9@9 0043728c     kdebug.obj
 0003:0000ba90       _addrHistory               00437290     kdebug.obj
 0003:0000bb90       _nAddrHistory              00437390     kdebug.obj
 0003:0000bb94       _hw_break                  00437394     kdebug.obj
 0003:0000bbc0       ?pStk@?1??reserve_thread_stack@@9@9 004373c0     kprocess.obj
 0003:0000bbc4       ?pProc@?1??reserve_thread_stack@@9@9 004373c4     kprocess.obj
 0003:0000bbc8       ?pThread@?1??reserve_thread_stack@@9@9 004373c8     kprocess.obj
 0003:0000bbcc       ?nR@?1??reserve_thread_stack@@9@9 004373cc     kprocess.obj
 0003:0000bbd0       ?nMapped@?1??reserve_thread_stack@@9@9 004373d0     kprocess.obj
 0003:0000bbd4       ?dwCR3@?1??reserve_thread_stack@@9@9 004373d4     kprocess.obj
 0003:0000bbd8       ?dwESP@?1??reserve_thread_stack@@9@9 004373d8     kprocess.obj
 0003:0000bbdc       ?dwSize@?1??reserve_thread_stack@@9@9 004373dc     kprocess.obj
 0003:0000bbe0       ?dwOrgCR3@?1??reserve_thread_stack@@9@9 004373e0     kprocess.obj
 0003:0000bbe4       ?dwR@?1??kthread_entry_point@@9@9 004373e4     kprocess.obj
 0003:0000bbe8       ?dwFunc@?1??kthread_entry_point@@9@9 004373e8     kprocess.obj
 0003:0000bbec       ?dwParam@?1??kthread_entry_point@@9@9 004373ec     kprocess.obj
 0003:0000bbf0       ?pFn@?1??kthread_entry_point@@9@9 004373f0     kprocess.obj
 0003:0000bbf4       $SG11730                   004373f4     kprocess.obj
 0003:0000bbf8       ?pT@?1??kernel_fork@@9@9   004373f8     kprocess.obj
 0003:0000bbfc       ?pVCon@?1??kernel_fork@@9@9 004373fc     kprocess.obj
 0003:0000bc00       ?pThreadEntry@?1??kernel_fork@@9@9 00437400     kprocess.obj
 0003:0000bc04       ?pP@?1??kernel_fork@@9@9   00437404     kprocess.obj
 0003:0000bc08       ?pParent@?1??kernel_fork@@9@9 00437408     kprocess.obj
 0003:0000bc0c       ?dwOrgESP@?1??kernel_fork@@9@9 0043740c     kprocess.obj
 0003:0000bc10       ?stack@?1??kernel_fork@@9@9 00437410     kprocess.obj
 0003:0000dc10       ?dwOrgCR3@?1??kernel_fork@@9@9 00439410     kprocess.obj
 0003:0000dc14       ?dwCR3@?1??kernel_fork@@9@9 00439414     kprocess.obj
 0003:0000dc18       ?dwParam@?1??kernel_fork@@9@9 00439418     kprocess.obj
 0003:0000dc1c       ?dwStackSize@?1??kernel_fork@@9@9 0043941c     kprocess.obj
 0003:0000dc20       ?dwSchLevel@?1??kernel_fork@@9@9 00439420     kprocess.obj
 0003:0000dc24       ?pP@?1??internal_kfork@@9@9 00439424     kprocess.obj
 0003:0000dc28       ?t_tss@?1??internal_kfork@@9@9 00439428     kprocess.obj
 0003:0000dc94       ?dwOrgCR3@?1??internal_kfork@@9@9 00439494     kprocess.obj
 0003:0000dc98       ?dwESP3@?1??internal_kfork@@9@9 00439498     kprocess.obj
 0003:0000dc9c       ?pCurThread@?1??internal_kfork@@9@9 0043949c     kprocess.obj
 0003:0000dca0       ?pT@?1??internal_kfork@@9@9 004394a0     kprocess.obj
 0003:0000dca8       _nKCmd                     004394a8     kshell.obj
 0003:0000dcb0       _kcmd                      004394b0     kshell.obj
 0003:0000feb0       __strOffset                0043b6b0     kshlcmd.obj
 0003:0000fed0       __strIP                    0043b6d0     kshlcmd.obj
 0003:0000fedc       __strOpCode                0043b6dc     kshlcmd.obj
 0003:0000fefc       __strSize                  0043b6fc     kshlcmd.obj
 0003:0000ff08       __strOperand               0043b708     kshlcmd.obj
 0003:0000ff70       __strDump                  0043b770     kshlcmd.obj
 0003:0000ffb0       _G_dwNextDumpAddr          0043b7b0     kshlcmd.obj
 0003:0000ffb4       $SG11701                   0043b7b4     kshlcmd.obj
 0003:0000ffb5       $SG12580                   0043b7b5     kshlcmd.obj
 0003:0000ffb8       ?dwParam@?1??system_call_wrapper@@9@9 0043b7b8     ksyscall.obj
 0003:0000ffbc       $SG11684                   0043b7bc     ksyscall.obj
 0003:0000ffbd       $SG11733                   0043b7bd     ksyscall.obj
 0003:0000ffc0       _syscall_addr_tbl          0043b7c0     ksyscall.obj
 0003:0001009c       ?pP@?1??ksyscall_handler@@9@9 0043b89c     ksyscall.obj
 0003:000100a0       ?nTotalParam@?1??ksyscall_handler@@9@9 0043b8a0     ksyscall.obj
 0003:000100a4       ?pParam@?1??ksyscall_handler@@9@9 0043b8a4     ksyscall.obj
 0003:000100a8       ?dwR@?1??ksyscall_handler@@9@9 0043b8a8     ksyscall.obj
 0003:000100ac       ?dwR3Exp@?1??ksyscall_handler@@9@9 0043b8ac     ksyscall.obj
 0003:000100b0       _G_pGraCallTbl             0043b8b0     ksyscall.obj
 0003:000100b4       _G_pGraCallAddrTbl         0043b8b4     ksyscall.obj
 0003:000100b8       ?nTotalParam@?1??kgrxcall_handler@@9@9 0043b8b8     ksyscall.obj
 0003:000100bc       ?pParam@?1??kgrxcall_handler@@9@9 0043b8bc     ksyscall.obj
 0003:000100c0       ?dwR@?1??kgrxcall_handler@@9@9 0043b8c0     ksyscall.obj
 0003:000100c8       _shmem                     0043b8c8     memory.obj
 0003:0001014c       $SG11506                   0043b94c     memory.obj
 0003:0001014d       $SG11509                   0043b94d     memory.obj
 0003:00010150       _sys_module                0043b950     module.obj
 0003:000101d8       _bell_mod                  0043b9d8     module.obj
 0003:0001021c       _mouse                     0043ba1c     mouse.obj
 0003:00010227       ?byCode@?1??ps2_mouse_handler@@9@9 0043ba27     mouse.obj
 0003:00010228       _basicOneTbl               0043ba28     Myasm.obj
 0003:00010630       _basicTwoTbl               0043be30     Myasm.obj
 0003:00010798       _nTotalPageTbl             0043bf98     paging.obj
 0003:0001079c       ?dwOrgCR3@?1??copy_on_write@@9@9 0043bf9c     paging.obj
 0003:000107a0       _cow_buff                  0043bfa0     paging.obj
 0003:000117a0       ?dwLinAddr@?1??copy_on_write@@9@9 0043cfa0     paging.obj
 0003:000117a8       _pci                       0043cfa8     pci.obj
 0003:00011bac       _com1                      0043d3ac     rsh_serv.obj
 0003:00011bc0       _sys_timer                 0043d3c0     schedule.obj
 0003:00011be0       _cur_tk                    0043d3e0     schedule.obj
 0003:00011be8       _prev_tk                   0043d3e8     schedule.obj
 0003:00011bf0       _sys_gui_timer             0043d3f0     schedule.obj
 0003:00011bfc       _dwPickThreadID            0043d3fc     schedule.obj
 0003:00011c00       _sema_man                  0043d400     semaph.obj
 0003:00011c0c       _pIrq3Sp                   0043d40c     serial.obj
 0003:00011c10       _pIrq4Sp                   0043d410     serial.obj
 0003:00011c18       _stk                       0043d418     Stk.obj
 0003:00011e20       _tlb_tss                   0043d620     tss.obj
 0003:00011e8c       _nTotalTSS                 0043d68c     tss.obj
 0003:00011e90       _tlb_stack                 0043d690     tss.obj
 0003:00011f90       _tt                        0043d790     tss.obj
 0003:00013190       _v86_tss                   0043e990     v86.obj
 0003:000151fc       _G_pV86Thread              004409fc     v86.obj
 0003:00015200       ?dwESP@?1??int_10h_emulator@@9@9 00440a00     v86.obj
 0003:00015204       ?pESP3@?1??int_10h_emulator@@9@9 00440a04     v86.obj
 0003:00015208       ?pIVT@?1??int_10h_emulator@@9@9 00440a08     v86.obj
 0003:0001520c       ?pESP@?1??int_10h_emulator@@9@9 00440a0c     v86.obj
 0003:00015210       ?dwEFLAG@?1??int_10h_emulator@@9@9 00440a10     v86.obj
 0003:00015214       ?dwESP@?1??int_1Ah_emulator@@9@9 00440a14     v86.obj
 0003:00015218       ?pESP3@?1??int_1Ah_emulator@@9@9 00440a18     v86.obj
 0003:0001521c       ?pIVT@?1??int_1Ah_emulator@@9@9 00440a1c     v86.obj
 0003:00015220       ?pESP@?1??int_1Ah_emulator@@9@9 00440a20     v86.obj
 0003:00015224       ?dwEFLAG@?1??int_1Ah_emulator@@9@9 00440a24     v86.obj
 0003:00015228       ?dwESP@?1??int_6Dh_emulator@@9@9 00440a28     v86.obj
 0003:0001522c       ?pESP3@?1??int_6Dh_emulator@@9@9 00440a2c     v86.obj
 0003:00015230       ?pIVT@?1??int_6Dh_emulator@@9@9 00440a30     v86.obj
 0003:00015234       ?pESP@?1??int_6Dh_emulator@@9@9 00440a34     v86.obj
 0003:00015238       ?dwEFLAG@?1??int_6Dh_emulator@@9@9 00440a38     v86.obj
 0003:0001523c       _G_pKernelVCon             00440a3c     vconsole.obj
 0003:00015240       _sys_vcon                  00440a40     vconsole.obj
 0003:00015254       _G_pGCTbl                  00440a54     vconsole.obj
 0003:00015258       _gui_info                  00440a58     vesa.obj
 0003:00015770       _p_idehdd_blk_dev          00440f70     bell_fs:vfs.obj
 0003:00015774       _pVFS                      00440f74     bell_fs:vfs.obj
 0003:00015778       _pPartObj                  00440f78     bell_fs:vfs.obj
 0003:0001577c       _pFAT32VFS                 00440f7c     bell_fs:vfs.obj
 0003:00015780       _p_fdd35_blk_dev           00440f80     bell_fs:vfs.obj
 0003:00015784       _p_ram_blk_dev             00440f84     bell_fs:vfs.obj
 0003:00015788       _blk                       00440f88     bell_fs:blkdev.obj
 0003:00015998       _fs                        00441198     bell_fs:file.obj
 0003:000159a8       _std_io_vnode              004411a8     bell_fs:file.obj
 0003:00015dc0       _sys_fd                    004415c0     bell_fs:file.obj
 0004:00000000       _kfunc                     00444800     kshlcmd.obj
 0004:00000380       $SG12458                   00444b80     kshlcmd.obj
 0004:00000384       $SG12459                   00444b84     kshlcmd.obj
 0004:000003a4       $SG12460                   00444ba4     kshlcmd.obj
 0004:000003a8       $SG12461                   00444ba8     kshlcmd.obj
 0004:000003b4       $SG12462                   00444bb4     kshlcmd.obj
 0004:000003bc       $SG12463                   00444bbc     kshlcmd.obj
 0004:000003e4       $SG12464                   00444be4     kshlcmd.obj
 0004:000003e8       $SG12465                   00444be8     kshlcmd.obj
 0004:000003fc       $SG12466                   00444bfc     kshlcmd.obj
 0004:00000400       $SG12467                   00444c00     kshlcmd.obj
 0004:00000420       $SG12468                   00444c20     kshlcmd.obj
 0004:00000428       $SG12469                   00444c28     kshlcmd.obj
 0004:00000458       $SG12470                   00444c58     kshlcmd.obj
 0004:00000460       $SG12471                   00444c60     kshlcmd.obj
 0004:00000478       $SG12472                   00444c78     kshlcmd.obj
 0004:00000480       $SG12473                   00444c80     kshlcmd.obj
 0004:00000498       $SG12474                   00444c98     kshlcmd.obj
 0004:000004a0       $SG12475                   00444ca0     kshlcmd.obj
 0004:000004b4       $SG12476                   00444cb4     kshlcmd.obj
 0004:000004b8       $SG12477                   00444cb8     kshlcmd.obj
 0004:000004c8       $SG12478                   00444cc8     kshlcmd.obj
 0004:000004d0       $SG12479                   00444cd0     kshlcmd.obj
 0004:00000508       $SG12480                   00444d08     kshlcmd.obj
 0004:0000050c       $SG12481                   00444d0c     kshlcmd.obj
 0004:00000524       $SG12482                   00444d24     kshlcmd.obj
 0004:00000528       $SG12483                   00444d28     kshlcmd.obj
 0004:00000548       $SG12484                   00444d48     kshlcmd.obj
 0004:00000550       $SG12485                   00444d50     kshlcmd.obj
 0004:00000578       $SG12486                   00444d78     kshlcmd.obj
 0004:00000580       $SG12487                   00444d80     kshlcmd.obj
 0004:00000598       $SG12488                   00444d98     kshlcmd.obj
 0004:000005a0       $SG12489                   00444da0     kshlcmd.obj
 0004:000005b4       $SG12490                   00444db4     kshlcmd.obj
 0004:000005b8       $SG12491                   00444db8     kshlcmd.obj
 0004:000005d4       $SG12492                   00444dd4     kshlcmd.obj
 0004:000005e0       $SG12493                   00444de0     kshlcmd.obj
 0004:000005ec       $SG12494                   00444dec     kshlcmd.obj
 0004:000005f4       $SG12495                   00444df4     kshlcmd.obj
 0004:00000600       $SG12496                   00444e00     kshlcmd.obj
 0004:00000604       $SG12497                   00444e04     kshlcmd.obj
 0004:0000062c       $SG12498                   00444e2c     kshlcmd.obj
 0004:00000630       $SG12499                   00444e30     kshlcmd.obj
 0004:0000063c       $SG12500                   00444e3c     kshlcmd.obj
 0004:00000640       $SG12501                   00444e40     kshlcmd.obj
 0004:00000650       $SG12502                   00444e50     kshlcmd.obj
 0004:00000654       $SG12503                   00444e54     kshlcmd.obj
 0004:00000660       $SG12504                   00444e60     kshlcmd.obj
 0004:00000664       $SG12505                   00444e64     kshlcmd.obj
 0004:00000670       $SG12506                   00444e70     kshlcmd.obj
 0004:00000678       $SG12507                   00444e78     kshlcmd.obj
 0004:00000688       $SG12508                   00444e88     kshlcmd.obj
 0004:00000690       $SG12509                   00444e90     kshlcmd.obj
 0004:000006b0       $SG12510                   00444eb0     kshlcmd.obj
 0004:000006b8       $SG12511                   00444eb8     kshlcmd.obj
 0004:000006d8       $SG12512                   00444ed8     kshlcmd.obj
 0004:000006dc       $SG12513                   00444edc     kshlcmd.obj
 0004:000006f8       $SG12514                   00444ef8     kshlcmd.obj
 0004:000006fc       $SG12515                   00444efc     kshlcmd.obj
 0004:00000718       $SG12516                   00444f18     kshlcmd.obj
 0004:0000071c       $SG12517                   00444f1c     kshlcmd.obj
 0004:00000740       $SG12518                   00444f40     kshlcmd.obj
 0004:00000748       $SG12519                   00444f48     kshlcmd.obj
 0004:00000770       $SG12520                   00444f70     kshlcmd.obj
 0004:00000778       $SG12521                   00444f78     kshlcmd.obj
 0004:0000078c       $SG12522                   00444f8c     kshlcmd.obj
 0004:00000794       $SG12523                   00444f94     kshlcmd.obj
 0004:000007ac       $SG12524                   00444fac     kshlcmd.obj
 0004:000007b0       $SG12525                   00444fb0     kshlcmd.obj
 0004:000007b8       $SG12526                   00444fb8     kshlcmd.obj
 0004:000007c0       $SG12527                   00444fc0     kshlcmd.obj
 0004:000007d0       $SG12528                   00444fd0     kshlcmd.obj
 0004:000007d4       $SG12529                   00444fd4     kshlcmd.obj
 0004:000007fc       $SG12530                   00444ffc     kshlcmd.obj
 0004:00000808       $SG12531                   00445008     kshlcmd.obj
 0004:00000814       $SG12532                   00445014     kshlcmd.obj
 0004:0000081c       $SG12533                   0044501c     kshlcmd.obj
 0004:00000834       $SG12534                   00445034     kshlcmd.obj
 0004:0000083c       $SG12535                   0044503c     kshlcmd.obj
 0004:00000858       $SG12536                   00445058     kshlcmd.obj
 0004:00000860       $SG12537                   00445060     kshlcmd.obj
 0004:00000880       $SG12538                   00445080     kshlcmd.obj
 0004:00000884       $SG12539                   00445084     kshlcmd.obj
 0004:000008a0       $SG12540                   004450a0     kshlcmd.obj
 0004:000008a8       $SG12541                   004450a8     kshlcmd.obj
 0004:000008b4       $SG12542                   004450b4     kshlcmd.obj
 0004:000008bc       $SG12543                   004450bc     kshlcmd.obj
 0004:000008dc       $SG12544                   004450dc     kshlcmd.obj
 0004:000008e4       $SG12545                   004450e4     kshlcmd.obj
 0004:00000920       $SG12546                   00445120     kshlcmd.obj
 0004:00000928       $SG12547                   00445128     kshlcmd.obj
 0004:00000948       $SG12548                   00445148     kshlcmd.obj
 0004:0000094c       $SG12549                   0044514c     kshlcmd.obj
 0004:0000095c       $SG12550                   0044515c     kshlcmd.obj
 0004:00000964       $SG12551                   00445164     kshlcmd.obj
 0004:0000096c       $SG12552                   0044516c     kshlcmd.obj
 0004:00000970       $SG12553                   00445170     kshlcmd.obj
 0004:00000988       $SG12554                   00445188     kshlcmd.obj
 0004:00000990       $SG12555                   00445190     kshlcmd.obj
 0004:000009b8       $SG12556                   004451b8     kshlcmd.obj
 0004:000009bc       $SG12557                   004451bc     kshlcmd.obj
 0004:000009d0       $SG12558                   004451d0     kshlcmd.obj
 0004:000009d8       $SG12559                   004451d8     kshlcmd.obj
 0004:000009f0       $SG12560                   004451f0     kshlcmd.obj
 0004:000009f8       $SG12561                   004451f8     kshlcmd.obj
 0004:00000a10       $SG12562                   00445210     kshlcmd.obj
 0004:00000a14       $SG12563                   00445214     kshlcmd.obj
 0004:00000a24       $SG12564                   00445224     kshlcmd.obj
 0004:00000a2c       $SG12565                   0044522c     kshlcmd.obj
 0004:00000a40       $SG12566                   00445240     kshlcmd.obj
 0004:00000a48       $SG12567                   00445248     kshlcmd.obj
 0004:00000a68       _scall_tbl                 00445268     ksyscall.obj
 0004:00000b30       _ksyscall_tbl              00445330     ksyscall.obj
 0005:00000060       $R000000                   00445860     * linker generated manifest res *
